BL51 BANKED LINKER/LOCATER V6.22                                                        03/10/2016  16:30:11  PAGE 1


BL51 BANKED LINKER/LOCATER V6.22, INVOKED BY:
C:\KEIL\C51\BIN\BL51.EXE STARTUP.obj, main.obj, usart.obj, key.obj, tm1629.obj, timer.obj, ds1302.obj, ev1527.obj, decod
>> er.obj, at24c256.obj, gd5800.obj, com.obj, printer.obj, pca.obj TO Receiver_keil RAMSIZE (256)


MEMORY MODEL: LARGE


INPUT MODULES INCLUDED:
  STARTUP.obj (?C_STARTUP)
  main.obj (MAIN)
  usart.obj (USART)
  key.obj (KEY)
  tm1629.obj (TM1629)
  timer.obj (TIMER)
  ds1302.obj (DS1302)
  ev1527.obj (EV1527)
  decoder.obj (DECODER)
  at24c256.obj (AT24C256)
  gd5800.obj (GD5800)
  com.obj (COM)
  printer.obj (PRINTER)
  pca.obj (PCA)
  C:\KEIL\C51\LIB\C51L.LIB (?C_INIT)
  C:\KEIL\C51\LIB\C51L.LIB (?C?COPY)
  C:\KEIL\C51\LIB\C51L.LIB (?C?CLDPTR)
  C:\KEIL\C51\LIB\C51L.LIB (?C?CLDOPTR)
  C:\KEIL\C51\LIB\C51L.LIB (?C?CSTPTR)
  C:\KEIL\C51\LIB\C51L.LIB (?C?CSTOPTR)
  C:\KEIL\C51\LIB\C51L.LIB (?C?IMUL)
  C:\KEIL\C51\LIB\C51L.LIB (?C?UIDIV)
  C:\KEIL\C51\LIB\C51L.LIB (?C?ILDIX)
  C:\KEIL\C51\LIB\C51L.LIB (?C?ULCMP)
  C:\KEIL\C51\LIB\C51L.LIB (?C?LSHL)
  C:\KEIL\C51\LIB\C51L.LIB (?C?LLDPTR)
  C:\KEIL\C51\LIB\C51L.LIB (?C?LLDOPTR)
  C:\KEIL\C51\LIB\C51L.LIB (?C?LSTPTR)
  C:\KEIL\C51\LIB\C51L.LIB (?C?LSTXDATA)
  C:\KEIL\C51\LIB\C51L.LIB (?C?CCASE)
  C:\KEIL\C51\LIB\C51L.LIB (?C?ICALL)
  C:\KEIL\C51\LIB\C51L.LIB (?C?STRCMP)
  C:\KEIL\C51\LIB\C51L.LIB (?C?MEMSET)
  C:\KEIL\C51\LIB\C51L.LIB (VSPRINTF)
  C:\KEIL\C51\LIB\C51L.LIB (?C?LLDIDATA)
  C:\KEIL\C51\LIB\C51L.LIB (?C?LLDXDATA)
  C:\KEIL\C51\LIB\C51L.LIB (?C?LLDPDATA)
  C:\KEIL\C51\LIB\C51L.LIB (?C?LLDCODE)
  C:\KEIL\C51\LIB\C51L.LIB (?C?LSTIDATA)
  C:\KEIL\C51\LIB\C51L.LIB (?C?LSTPDATA)
  C:\KEIL\C51\LIB\C51L.LIB (PRINTF)
  C:\KEIL\C51\LIB\C51L.LIB (?C?PLDIXDATA)
  C:\KEIL\C51\LIB\C51L.LIB (?C?PSTXDATA)
  C:\KEIL\C51\LIB\C51L.LIB (PUTCHAR)


LINK MAP OF MODULE:  Receiver_keil (?C_STARTUP)


BL51 BANKED LINKER/LOCATER V6.22                                                      03/10/2016  16:30:11  PAGE 2


            TYPE    BASE      LENGTH    RELOCATION   SEGMENT NAME
            -----------------------------------------------------

            * * * * * * *   D A T A   M E M O R Y   * * * * * * *
            REG     0000H     0008H     ABSOLUTE     "REG BANK 0"
            REG     0008H     0008H     ABSOLUTE     "REG BANK 1"
            DATA    0010H     0005H     UNIT         ?DT?PRINTF?PRINTF
                    0015H     000BH                  *** GAP ***
            BIT     0020H.0   0001H.1   UNIT         ?BI?PRINTF?PRINTF
            BIT     0021H.1   0000H.1   UNIT         ?BI?USART
            BIT     0021H.2   0000H.1   UNIT         ?BI?AT24C256
            BIT     0021H.3   0000H.1   UNIT         ?BI?PCA
                    0021H.4   0000H.4                *** GAP ***
            IDATA   0022H     0001H     UNIT         ?STACK

            * * * * * * *  X D A T A   M E M O R Y  * * * * * * *
            XDATA   0000H     03A5H     UNIT         ?XD?TM1629
            XDATA   03A5H     012EH     UNIT         ?XD?_UART_PRINTF?USART
            XDATA   04D3H     00B1H     UNIT         ?XD?DECODER
            XDATA   0584H     0050H     UNIT         _XDATA_GROUP_
            XDATA   05D4H     004BH     UNIT         ?XD?KEY
            XDATA   061FH     0028H     UNIT         ?XD?PRINTF?PRINTF
            XDATA   0647H     0025H     UNIT         ?XD?EV1527
            XDATA   066CH     0013H     UNIT         ?XD?USART
            XDATA   067FH     0010H     UNIT         ?XD?DS1302
            XDATA   068FH     0010H     UNIT         ?XD?AT24C256
            XDATA   069FH     000EH     UNIT         ?XD?TIMER
            XDATA   06ADH     000BH     UNIT         ?XD?_MCU_TO_COMPUTER?COM
            XDATA   06B8H     0009H     UNIT         ?XD?PCA
            XDATA   06C1H     0006H     UNIT         ?XD?_VSPRINTF?VSPRINTF
            XDATA   06C7H     0003H     UNIT         ?XD?_USART1_SENDSTRING?USART
            XDATA   06CAH     0003H     UNIT         ?XD?_USART2_SENDSTRING?USART
            XDATA   06CDH     0003H     UNIT         ?XD?_SENDSTRING?USART
            XDATA   06D0H     0001H     UNIT         ?XD?_PRINTER58MM_SETMODE?PRINTER

            * * * * * * *   C O D E   M E M O R Y   * * * * * * *
            CODE    0000H     0003H     ABSOLUTE     
            CODE    0003H     0003H     ABSOLUTE     
            CODE    0006H     0005H     UNIT         ?PR?FUN1?TM1629
            CODE    000BH     0003H     ABSOLUTE     
            CODE    000EH     000DH     UNIT         ?PR?FUN14?TM1629
            CODE    001BH     0003H     ABSOLUTE     
            CODE    001EH     0005H     UNIT         ?PR?FUN11?TM1629
            CODE    0023H     0003H     ABSOLUTE     
            CODE    0026H     0015H     UNIT         ?PR?FUN103?TM1629
            CODE    003BH     0003H     ABSOLUTE     
            CODE    003EH     0005H     UNIT         ?PR?FUN12?TM1629
            CODE    0043H     0003H     ABSOLUTE     
            CODE    0046H     10D5H     UNIT         ?PR?KEYPROCESS?KEY
            CODE    111BH     0ADAH     UNIT         ?PR?DECODERPROCESS?DECODER
            CODE    1BF5H     0777H     UNIT         ?PR?KEYSCAN?KEY
            CODE    236CH     062AH     UNIT         ?C_INITSEG
            CODE    2996H     04E6H     UNIT         ?C?LIB_CODE
            CODE    2E7CH     0365H     UNIT         ?PR?PRINTF?PRINTF
            CODE    31E1H     035BH     UNIT         ?CO?KEY
            CODE    353CH     02AEH     UNIT         ?PR?RF_DECODE_MAIN_SJZ_TEST?EV1527
            CODE    37EAH     025AH     UNIT         ?PR?_SUBMENUF6_1?GD5800
BL51 BANKED LINKER/LOCATER V6.22                                                      03/10/2016  16:30:11  PAGE 3


            CODE    3A44H     0229H     UNIT         ?PR?_CANCEL_FUNTION?TM1629
            CODE    3C6DH     0207H     UNIT         ?PR?TM1629_READ_KEY?TM1629
            CODE    3E74H     01E0H     UNIT         ?PR?_SENDIRDATA?PCA
            CODE    4054H     01DEH     UNIT         ?PR?RF_DECODE_MAIN?EV1527
            CODE    4232H     01D5H     UNIT         ?PR?_MCURAM_TO_DISPLAYRAM?TM1629
            CODE    4407H     01CDH     UNIT         ?PR?PRINTER58MM_PRINT?PRINTER
            CODE    45D4H     01CAH     UNIT         ?PR?_MCU_TO_COMPUTER?COM
            CODE    479EH     01A9H     UNIT         ?PR?DISPLAY_TIME?TM1629
            CODE    4947H     01A3H     UNIT         ?PR?ENV_INIT?KEY
            CODE    4AEAH     017CH     UNIT         ?PR?CYCLEPROCESS?TM1629
            CODE    4C66H     0170H     UNIT         ?PR?_SEARCH_FUNTION?TM1629
            CODE    4DD6H     014BH     UNIT         ?PR?RECEIVE_RF_DECODER?EV1527
            CODE    4F21H     0147H     UNIT         ?PR?_SUBMENUF6_1_VOICESELECT?GD5800
            CODE    5068H     0146H     UNIT         ?PR?KEYDECODER?KEY
            CODE    51AEH     013BH     UNIT         ?PR?TIMER0_ISR?TIMER
            CODE    52E9H     0138H     UNIT         ?PR?_REGISTER_ALARM_FUNCTION?AT24C256
            CODE    5421H     0138H     UNIT         ?PR?_REGISTER_CANCEL_FUNCTION?AT24C256
            CODE    5559H     0131H     UNIT         ?PR?_REGISTER_HOST_FUNCTION?AT24C256
            CODE    568AH     012BH     UNIT         ?PR?_DELETE_ALARM_FUNCTION?AT24C256
            CODE    57B5H     012BH     UNIT         ?PR?_DELETE_CANCEL_FUNCTION?AT24C256
            CODE    58E0H     0126H     UNIT         ?PR?_REGISTER_CALL_FUNCTION?AT24C256
            CODE    5A06H     0124H     UNIT         ?PR?TM1629_LOAD?TM1629
            CODE    5B2AH     0124H     UNIT         ?PR?_DELETE_HOST_FUNCTION?AT24C256
            CODE    5C4EH     0114H     UNIT         ?PR?_DELETE_CALL_FUNCTION?AT24C256
            CODE    5D62H     00F9H     UNIT         ?PR?CYCLEDOWN?TM1629
            CODE    5E5BH     00DBH     UNIT         ?PR?_DECODER_TEMP_TO_MCURAM?TM1629
            CODE    5F36H     00D3H     UNIT         ?PR?_FIND_RF_EEPROM_HOST?AT24C256
            CODE    6009H     00D3H     UNIT         ?PR?_FIND_RF_EEPROM_ALARM?AT24C256
            CODE    60DCH     00D3H     UNIT         ?PR?_FIND_RF_EEPROM_CANCEL?AT24C256
            CODE    61AFH     00D0H     UNIT         ?PR?LOGOUTPROCESS?TM1629
            CODE    627FH     00CCH     UNIT         ?PR?_FIND_RF_EEPROM_CALL?AT24C256
            CODE    634BH     00C8H     UNIT         ?PR?_AWAIT_VOICE_ARRAY_FORWARD?DECODER
            CODE    6413H     00C3H     UNIT         ?PR?FUN105?TM1629
            CODE    64D6H     00C1H     UNIT         ?PR?UART?USART
            CODE    6597H     00B9H     UNIT         ?PR?_TRANSMIT_SHOW_FOUR_NUMBER?TM1629
            CODE    6650H     00B8H     UNIT         ?PR?CYCLEUP?TM1629
            CODE    6708H     00ABH     UNIT         ?PR?AWAIT_VOICE_PROCESS?DECODER
            CODE    67B3H     00A0H     UNIT         ?CO?AT24C256
            CODE    6853H     009CH     UNIT         ?PR?_AWAIT_VOICE_PUT?DECODER
            CODE    68EFH     009BH     UNIT         ?PR?_VOICE_DISPLAY_SYNCHRONOUS_FUNTION?DECODER
            CODE    698AH     0098H     UNIT         ?PR?ENV_LOAD?KEY
            CODE    6A22H     0098H     UNIT         ?PR?TRANSMIT_SHOW_WAIT_NUMBER?TM1629
            CODE    6ABAH     0095H     UNIT         ?PR?FUN106?TM1629
            CODE    6B4FH     0094H     UNIT         ?PR?LOGOUT?TM1629
            CODE    6BE3H     0092H     UNIT         ?PR?UART2?USART
            CODE    6C75H     0092H     UNIT         ?PR?DISPLAY?TM1629
            CODE    6D07H     008FH     UNIT         ?PR?DS1302_WRITE_TIME?DS1302
            CODE    6D96H     008CH     UNIT         ?C_C51STARTUP
            CODE    6E22H     0077H     UNIT         ?PR?DS1302_READ_TIME?DS1302
            CODE    6E99H     0076H     UNIT         ?PR?_IRCVSTR?AT24C256
            CODE    6F0FH     0069H     UNIT         ?PR?_TRANSMIT_SHOW_THREE_NUMBER?TM1629
            CODE    6F78H     0069H     UNIT         ?PR?_FIND_RF_EEPROM?AT24C256
            CODE    6FE1H     005FH     UNIT         ?PR?TM1629_INIT?TM1629
            CODE    7040H     005FH     UNIT         ?PR?_SHOW_THREE_NUMBER?TM1629
            CODE    709FH     005CH     UNIT         ?PR?DELETE_ALL_DATA?AT24C256
            CODE    70FBH     0059H     UNIT         ?PR?_SHOW_FOUR_NUMBER?TM1629
            CODE    7154H     0058H     UNIT         ?PR?TRANSMIT_SHOW_TWO_NUMBER?TM1629
BL51 BANKED LINKER/LOCATER V6.22                                                      03/10/2016  16:30:11  PAGE 4


            CODE    71ACH     0055H     UNIT         ?PR?_UART_PRINTF?USART
            CODE    7201H     0055H     UNIT         ?PR?VAR_INIT?KEY
            CODE    7256H     0055H     UNIT         ?PR?_ISENDSTR?AT24C256
            CODE    72ABH     0053H     UNIT         ?PR?_MCURAM_TO_MCURAM_UP?TM1629
            CODE    72FEH     0051H     UNIT         ?PR?TIMER1_ISR?TIMER
            CODE    734FH     0050H     UNIT         ?PR?_TRANSMIT_SET_DATA?KEY
            CODE    739FH     0050H     UNIT         ?PR?FUN49?TM1629
            CODE    73EFH     004FH     UNIT         ?PR?_AWAIT_VOICE_GET?DECODER
            CODE    743EH     004EH     UNIT         ?PR?_MCURAM_TO_MCURAM_DOWN?TM1629
            CODE    748CH     004EH     UNIT         ?PR?FUN95?TM1629
            CODE    74DAH     004DH     UNIT         ?PR?PCA_TIMER_INIT?PCA
            CODE    7527H     004CH     UNIT         ?PR?PCA_ISR?PCA
            CODE    7573H     004AH     UNIT         ?PR?FUN15?TM1629
            CODE    75BDH     004AH     UNIT         ?PR?_VSPRINTF?VSPRINTF
            CODE    7607H     0048H     UNIT         ?PR?_DISPLAY_LIGHT?TM1629
            CODE    764FH     0041H     UNIT         ?PR?_AWAIT_VOICE_CYCLE_UP?DECODER
            CODE    7690H     003FH     UNIT         ?PR?_DS1302_WRITE_BYTE?DS1302
            CODE    76CFH     003FH     UNIT         ?PR?_DS1302_READ_BYTE?DS1302
            CODE    770EH     003DH     UNIT         ?PR?_SENDBYTE?AT24C256
            CODE    774BH     003CH     UNIT         ?PR?KEY_INIT?KEY
            CODE    7787H     003AH     UNIT         ?PR?FUN93?TM1629
            CODE    77C1H     003AH     UNIT         ?PR?_GD5800_SELECT_CHAPTER_NEW?GD5800
            CODE    77FBH     0038H     UNIT         ?PR?TM1629_AWAIT?TM1629
            CODE    7833H     0038H     UNIT         ?PR?FUN16?TM1629
            CODE    786BH     0038H     UNIT         ?PR?FUN17?TM1629
            CODE    78A3H     0036H     UNIT         ?PR?FUN94?TM1629
            CODE    78D9H     0033H     UNIT         ?PR?_USART1_SENDSTRING?USART
            CODE    790CH     0033H     UNIT         ?PR?_USART2_SENDSTRING?USART
            CODE    793FH     0033H     UNIT         ?PR?_SENDSTRING?USART
            CODE    7972H     0033H     UNIT         ?PR?_GD5800_SELECT_CHAPTER?GD5800
            CODE    79A5H     0031H     UNIT         ?PR?FUN20?TM1629
            CODE    79D6H     0030H     UNIT         ?PR?_SHOW_TWO_NUMBER?TM1629
            CODE    7A06H     002FH     UNIT         ?PR?MAIN?MAIN
            CODE    7A35H     002BH     UNIT         ?PR?_WRITEDATATO1629?TM1629
            CODE    7A60H     002BH     UNIT         ?PR?_WRITEDATATO1629_2?TM1629
            CODE    7A8BH     002BH     UNIT         ?PR?_WRITEDATATO1629_3?TM1629
            CODE    7AB6H     0029H     UNIT         ?PR?TM1629_CLEAR?TM1629
            CODE    7ADFH     0028H     UNIT         ?PR?FUN19?TM1629
            CODE    7B07H     0028H     UNIT         ?PR?FUN54?TM1629
            CODE    7B2FH     0028H     UNIT         ?PR?FUN55?TM1629
            CODE    7B57H     0028H     UNIT         ?PR?FUN56?TM1629
            CODE    7B7FH     0028H     UNIT         ?PR?FUN58?TM1629
            CODE    7BA7H     0028H     UNIT         ?PR?FUN59?TM1629
            CODE    7BCFH     0028H     UNIT         ?PR?FUN60?TM1629
            CODE    7BF7H     0028H     UNIT         ?PR?FUN62?TM1629
            CODE    7C1FH     0028H     UNIT         ?PR?FUN63?TM1629
            CODE    7C47H     0028H     UNIT         ?PR?FUN64?TM1629
            CODE    7C6FH     0028H     UNIT         ?PR?FUN66?TM1629
            CODE    7C97H     0028H     UNIT         ?PR?FUN67?TM1629
            CODE    7CBFH     0028H     UNIT         ?PR?FUN68?TM1629
            CODE    7CE7H     0028H     UNIT         ?PR?FUN70?TM1629
            CODE    7D0FH     0028H     UNIT         ?PR?FUN71?TM1629
            CODE    7D37H     0028H     UNIT         ?PR?FUN72?TM1629
            CODE    7D5FH     0028H     UNIT         ?PR?FUN74?TM1629
            CODE    7D87H     0028H     UNIT         ?PR?FUN75?TM1629
            CODE    7DAFH     0028H     UNIT         ?PR?FUN76?TM1629
            CODE    7DD7H     0028H     UNIT         ?PR?FUN78?TM1629
BL51 BANKED LINKER/LOCATER V6.22                                                      03/10/2016  16:30:11  PAGE 5


            CODE    7DFFH     0028H     UNIT         ?PR?FUN79?TM1629
            CODE    7E27H     0028H     UNIT         ?PR?FUN80?TM1629
            CODE    7E4FH     0027H     UNIT         ?PR?PUTCHAR?PUTCHAR
            CODE    7E76H     0026H     UNIT         ?PR?_GLOBAL_DISPLAY?TM1629
            CODE    7E9CH     0025H     UNIT         ?PR?FUN89?TM1629
            CODE    7EC1H     0025H     UNIT         ?PR?RCVBYTE?AT24C256
            CODE    7EE6H     0024H     UNIT         ?PR?FUN0?TM1629
            CODE    7F0AH     0024H     UNIT         ?PR?FUN18?TM1629
            CODE    7F2EH     0023H     UNIT         ?PR?USARTINIT?USART
            CODE    7F51H     0023H     UNIT         ?PR?FUN57?TM1629
            CODE    7F74H     0023H     UNIT         ?PR?FUN61?TM1629
            CODE    7F97H     0023H     UNIT         ?PR?FUN65?TM1629
            CODE    7FBAH     0023H     UNIT         ?PR?FUN69?TM1629
            CODE    7FDDH     0023H     UNIT         ?PR?FUN73?TM1629
            CODE    8000H     0023H     UNIT         ?PR?FUN77?TM1629
            CODE    8023H     0023H     UNIT         ?PR?FUN81?TM1629
            CODE    8046H     0022H     UNIT         ?PR?FUN50?TM1629
            CODE    8068H     0022H     UNIT         ?PR?FUN51?TM1629
            CODE    808AH     0022H     UNIT         ?PR?FUN52?TM1629
            CODE    80ACH     0021H     UNIT         ?PR?_GD5800_SOUND_VOLUME?GD5800
            CODE    80CDH     0020H     UNIT         ?CO?TM1629
            CODE    80EDH     001FH     UNIT         ?PR?_TM1629_F?TM1629
            CODE    810CH     001FH     UNIT         ?PR?_TM1629_E?TM1629
            CODE    812BH     001EH     UNIT         ?PR?FUN2?TM1629
            CODE    8149H     001EH     UNIT         ?PR?FUN3?TM1629
            CODE    8167H     001EH     UNIT         ?PR?FUN4?TM1629
            CODE    8185H     001EH     UNIT         ?PR?FUN5?TM1629
            CODE    81A3H     001EH     UNIT         ?PR?FUN6?TM1629
            CODE    81C1H     001EH     UNIT         ?PR?FUN7?TM1629
            CODE    81DFH     001EH     UNIT         ?PR?FUN8?TM1629
            CODE    81FDH     001EH     UNIT         ?PR?FUN9?TM1629
            CODE    821BH     001EH     UNIT         ?PR?FUN10?TM1629
            CODE    8239H     001DH     UNIT         ?PR?FUN53?TM1629
            CODE    8256H     001DH     UNIT         ?PR?FUN87?TM1629
            CODE    8273H     001CH     UNIT         ?PR?RF_INI_RECEIVE?EV1527
            CODE    828FH     001AH     UNIT         ?PR?FUN46?TM1629
            CODE    82A9H     0019H     UNIT         ?PR?_SEND_COMMAND_2?TM1629
            CODE    82C2H     0019H     UNIT         ?PR?_SEND_COMMAND_3?TM1629
            CODE    82DBH     0019H     UNIT         ?PR?GD5800_INITIALIZATION?GD5800
            CODE    82F4H     0017H     UNIT         ?PR?_SHOW_ONE_NUMBER?TM1629
            CODE    830BH     0017H     UNIT         ?PR?_PRINTER58MM_SETMODE?PRINTER
            CODE    8322H     0016H     UNIT         ?PR?_SEND_COMMAND?TM1629
            CODE    8338H     0016H     UNIT         ?PR?SHOW_OFF?TM1629
            CODE    834EH     0016H     UNIT         ?PR?START_I2C?AT24C256
            CODE    8364H     0015H     UNIT         ?PR?_DELAYMS?AT24C256
            CODE    8379H     0014H     UNIT         ?PR?_DELAYMULTI10MS?KEY
            CODE    838DH     0014H     UNIT         ?PR?SHOW_ON?TM1629
            CODE    83A1H     0014H     UNIT         ?PR?GD5800_STOP_MUSIC?GD5800
            CODE    83B5H     0014H     UNIT         ?PR?GD5800_PLAY_MUSIC?GD5800
            CODE    83C9H     0013H     UNIT         ?PR?RETURN_TWO_MENU_F8_E1?KEY
            CODE    83DCH     0013H     UNIT         ?PR?RETURN_TWO_MENU_FC_E1?KEY
            CODE    83EFH     0013H     UNIT         ?PR?RETURN_TWO_MENU_FB_E1?KEY
            CODE    8402H     0012H     UNIT         ?PR?_TM1629_DELAY?TM1629
            CODE    8414H     0012H     UNIT         ?PR?FUN21?TM1629
            CODE    8426H     0012H     UNIT         ?PR?FUN22?TM1629
            CODE    8438H     0012H     UNIT         ?PR?FUN23?TM1629
            CODE    844AH     0012H     UNIT         ?PR?FUN24?TM1629
BL51 BANKED LINKER/LOCATER V6.22                                                      03/10/2016  16:30:11  PAGE 6


            CODE    845CH     0012H     UNIT         ?PR?FUN25?TM1629
            CODE    846EH     0012H     UNIT         ?PR?FUN26?TM1629
            CODE    8480H     0012H     UNIT         ?PR?FUN27?TM1629
            CODE    8492H     0012H     UNIT         ?PR?FUN28?TM1629
            CODE    84A4H     0011H     UNIT         ?PR?FUN104?TM1629
            CODE    84B5H     0011H     UNIT         ?PR?STOP_I2C?AT24C256
            CODE    84C6H     0011H     UNIT         ?PR?ACK_I2C?AT24C256
            CODE    84D7H     0011H     UNIT         ?PR?NOACK_I2C?AT24C256
            CODE    84E8H     0010H     UNIT         ?PR?INIT_TIMER0?TIMER
            CODE    84F8H     000FH     UNIT         ?CO?USART
            CODE    8507H     000EH     UNIT         ?PR?DELAY10MS?KEY
            CODE    8515H     000EH     UNIT         ?PR?FUN42?TM1629
            CODE    8523H     000EH     UNIT         ?PR?INIT_TIMER1?TIMER
            CODE    8531H     000BH     UNIT         ?PR?TM1629_DISPLAY_BUFF_CLEAR?TM1629
            CODE    853CH     000BH     UNIT         ?PR?_SET_FD_TABLE?TIMER
            CODE    8547H     000BH     UNIT         ?PR?_SET_FILTER_MAIN?TIMER
            CODE    8552H     000BH     UNIT         ?PR?DS1302_INIT?DS1302
            CODE    855DH     0009H     UNIT         ?PR?_USART1_SENDDATA?USART
            CODE    8566H     0009H     UNIT         ?PR?_USART2_SENDDATA?USART
            CODE    856FH     0009H     UNIT         ?PR?_SENDDATA?USART
            CODE    8578H     0009H     UNIT         ?PR?RETURN_RF_TRANS_COUNT?EV1527
            CODE    8581H     0008H     UNIT         ?PR?FUN31?TM1629
            CODE    8589H     0008H     UNIT         ?PR?FUN32?TM1629
            CODE    8591H     0008H     UNIT         ?PR?FUN47?TM1629
            CODE    8599H     0008H     UNIT         ?PR?FUN48?TM1629
            CODE    85A1H     0008H     UNIT         ?PR?FUN82?TM1629
            CODE    85A9H     0008H     UNIT         ?PR?FUN83?TM1629
            CODE    85B1H     0008H     UNIT         ?PR?FUN84?TM1629
            CODE    85B9H     0008H     UNIT         ?PR?FUN85?TM1629
            CODE    85C1H     0008H     UNIT         ?PR?FUN86?TM1629
            CODE    85C9H     0008H     UNIT         ?PR?FUN88?TM1629
            CODE    85D1H     0008H     UNIT         ?PR?FUN90?TM1629
            CODE    85D9H     0008H     UNIT         ?PR?FUN91?TM1629
            CODE    85E1H     0008H     UNIT         ?PR?FUN92?TM1629
            CODE    85E9H     0008H     UNIT         ?PR?FUN97?TM1629
            CODE    85F1H     0008H     UNIT         ?PR?FUN99?TM1629
            CODE    85F9H     0008H     UNIT         ?PR?FUN101?TM1629
            CODE    8601H     0008H     UNIT         ?PR?EXINT0?EV1527
            CODE    8609H     0007H     UNIT         ?PR?EXINT0_INIT?EV1527
            CODE    8610H     0006H     UNIT         ?PR?RETURN_FUNC_INDEX?KEY
            CODE    8616H     0006H     UNIT         ?PR?_SET_FUNC_INDEX?KEY
            CODE    861CH     0006H     UNIT         ?PR?RETURN_TWO_MENU_F3_E1?KEY
            CODE    8622H     0006H     UNIT         ?PR?RETURN_TWO_MENU_F3_E2?KEY
            CODE    8628H     0006H     UNIT         ?PR?RETURN_TWO_MENU_F4_E1?KEY
            CODE    862EH     0006H     UNIT         ?PR?RETURN_TWO_MENU_F5_E1?KEY
            CODE    8634H     0006H     UNIT         ?PR?RETURN_TWO_MENU_F6_E1?KEY
            CODE    863AH     0006H     UNIT         ?PR?RETURN_TWO_MENU_F6_E2?KEY
            CODE    8640H     0006H     UNIT         ?PR?RETURN_TWO_MENU_F6_E3?KEY
            CODE    8646H     0006H     UNIT         ?PR?RETURN_TWO_MENU_F6_E4?KEY
            CODE    864CH     0006H     UNIT         ?PR?RETURN_TWO_MENU_F6_E5?KEY
            CODE    8652H     0006H     UNIT         ?PR?RETURN_TWO_MENU_F6_E6?KEY
            CODE    8658H     0006H     UNIT         ?PR?RETURN_TWO_MENU_F6_E7?KEY
            CODE    865EH     0006H     UNIT         ?PR?RETURN_TWO_MENU_F6_E8?KEY
            CODE    8664H     0006H     UNIT         ?PR?RETURN_TWO_MENU_F7_E1?KEY
            CODE    866AH     0006H     UNIT         ?PR?RETURN_TWO_MENU_F7_E2?KEY
            CODE    8670H     0006H     UNIT         ?PR?RETURN_TWO_MENU_F7_E3?KEY
            CODE    8676H     0006H     UNIT         ?PR?RETURN_TWO_MENU_F7_E4?KEY
BL51 BANKED LINKER/LOCATER V6.22                                                      03/10/2016  16:30:11  PAGE 7


            CODE    867CH     0006H     UNIT         ?PR?RETURN_TWO_MENU_F8_E2?KEY
            CODE    8682H     0006H     UNIT         ?PR?RETURN_SOUND_TABLE?KEY
            CODE    8688H     0006H     UNIT         ?PR?_SET_SOUND_TABLE?KEY
            CODE    868EH     0006H     UNIT         ?PR?RETURN_AWAIT_NUMBER_TABLE?TIMER
            CODE    8694H     0006H     UNIT         ?PR?_SET_AWAIT_NUMBER_TABLE?TIMER
            CODE    869AH     0006H     UNIT         ?PR?_SET_MAIN_PRESS_TIME_TABLE?TIMER
            CODE    86A0H     0006H     UNIT         ?PR?RETURN_MAIN_PRESS_TIME?TIMER
            CODE    86A6H     0006H     UNIT         ?PR?CLEAR_MAIN_PRESS_TIME?TIMER
            CODE    86ACH     0006H     UNIT         ?PR?RETURN_LOGOUT_CYCLE_TABLE?TIMER
            CODE    86B2H     0006H     UNIT         ?PR?_SET_LOGOUT_CYCLE_TABLE?TIMER
            CODE    86B8H     0006H     UNIT         ?PR?CLEAR_RETURN_STANDBY_TIME?TIMER
            CODE    86BEH     0006H     UNIT         ?PR?_SET_MAIN_PRESS_TIME?TIMER
            CODE    86C4H     0006H     UNIT         ?PR?RETURN_FD_TABLE?TIMER
            CODE    86CAH     0006H     UNIT         ?PR?RETURN_FILTER_MAIN?TIMER
            CODE    86D0H     0006H     UNIT         ?PR?RETURN_FILTER_OTHER?TIMER
            CODE    86D6H     0006H     UNIT         ?PR?_SET_FILTER_OTHER?TIMER
            CODE    86DCH     0006H     UNIT         ?PR?CLEAR_AGAIN_AND_AGAIN_TIME?TIMER
            CODE    86E2H     0006H     UNIT         ?PR?CLEAR_SECOND_FILTER_TIME?TIMER
            CODE    86E8H     0006H     UNIT         ?PR?_SET_SECOND_FILTER_TABLE?TIMER
            CODE    86EEH     0006H     UNIT         ?PR?RETURN_SECOND_FILTER_TABLE?TIMER
            CODE    86F4H     0006H     UNIT         ?PR?RETURN_AGAIN_RECEIVE_RF_DECODER_FINISHED?EV1527
            CODE    86FAH     0006H     UNIT         ?PR?CLEAR_AGAIN_RECEIVE_RF_DECODER_FINISHED?EV1527
            CODE    8700H     0006H     UNIT         ?PR?RETURN_AGAIN_AND_AGAIN_DECODER_TABLE?EV1527
            CODE    8706H     0006H     UNIT         ?PR?CLEAR_AGAIN_AND_AGAIN_DECODER_TABLE?EV1527
            CODE    870CH     0006H     UNIT         ?PR?RETURN_REGISTER_MANAGER?EV1527
            CODE    8712H     0006H     UNIT         ?PR?CLEAR_REGISTER_MANAGER?EV1527
            CODE    8718H     0006H     UNIT         ?PR?RETURN_TWO_MENU_SET_SUCCESS?DECODER
            CODE    871EH     0006H     UNIT         ?PR?_SET_TWO_MENU_SET_SUCCESS?DECODER
            CODE    8724H     0005H     UNIT         ?PR?FUN13?TM1629
            CODE    8729H     0005H     UNIT         ?PR?FUN29?TM1629
            CODE    872EH     0005H     UNIT         ?PR?FUN30?TM1629
            CODE    8733H     0005H     UNIT         ?PR?FUN33?TM1629
            CODE    8738H     0005H     UNIT         ?PR?FUN34?TM1629
            CODE    873DH     0005H     UNIT         ?PR?FUN35?TM1629
            CODE    8742H     0005H     UNIT         ?PR?FUN36?TM1629
            CODE    8747H     0005H     UNIT         ?PR?FUN37?TM1629
            CODE    874CH     0005H     UNIT         ?PR?FUN38?TM1629
            CODE    8751H     0005H     UNIT         ?PR?FUN39?TM1629
            CODE    8756H     0005H     UNIT         ?PR?FUN40?TM1629
            CODE    875BH     0005H     UNIT         ?PR?FUN41?TM1629
            CODE    8760H     0005H     UNIT         ?PR?FUN43?TM1629
            CODE    8765H     0005H     UNIT         ?PR?FUN44?TM1629
            CODE    876AH     0005H     UNIT         ?PR?FUN45?TM1629
            CODE    876FH     0005H     UNIT         ?PR?FUN96?TM1629
            CODE    8774H     0005H     UNIT         ?PR?FUN98?TM1629
            CODE    8779H     0005H     UNIT         ?PR?FUN100?TM1629
            CODE    877EH     0005H     UNIT         ?PR?FUN102?TM1629
            CODE    8783H     0003H     UNIT         ?PR?_DELAYUS2X?AT24C256



OVERLAY MAP OF MODULE:   Receiver_keil (?C_STARTUP)


SEGMENT                                            XDATA_GROUP
  +--> CALLED SEGMENT                            START    LENGTH
----------------------------------------------------------------
BL51 BANKED LINKER/LOCATER V6.22                                                      03/10/2016  16:30:11  PAGE 8


?C_C51STARTUP                                    -----    -----
  +--> ?PR?MAIN?MAIN
  +--> ?C_INITSEG

?PR?MAIN?MAIN                                    -----    -----
  +--> ?PR?USARTINIT?USART
  +--> ?PR?INIT_TIMER0?TIMER
  +--> ?PR?INIT_TIMER1?TIMER
  +--> ?PR?EXINT0_INIT?EV1527
  +--> ?PR?DS1302_INIT?DS1302
  +--> ?PR?GD5800_INITIALIZATION?GD5800
  +--> ?PR?DELAY10MS?KEY
  +--> ?PR?PCA_TIMER_INIT?PCA
  +--> ?PR?TM1629_INIT?TM1629
  +--> ?PR?KEYPROCESS?KEY
  +--> ?PR?DECODERPROCESS?DECODER
  +--> ?PR?AWAIT_VOICE_PROCESS?DECODER

?PR?DS1302_INIT?DS1302                           -----    -----
  +--> ?PR?_DS1302_WRITE_BYTE?DS1302

?PR?GD5800_INITIALIZATION?GD5800                 -----    -----
  +--> ?PR?_USART2_SENDDATA?USART

?PR?TM1629_INIT?TM1629                           0584H    0001H
  +--> ?PR?DISPLAY?TM1629
  +--> ?PR?_GD5800_SELECT_CHAPTER?GD5800
  +--> ?PR?_TM1629_DELAY?TM1629

?PR?DISPLAY?TM1629                               -----    -----
  +--> ?PR?RETURN_TWO_MENU_F6_E5?KEY
  +--> ?PR?_SEND_COMMAND?TM1629
  +--> ?PR?_WRITEDATATO1629?TM1629
  +--> ?PR?_SEND_COMMAND_2?TM1629
  +--> ?PR?_WRITEDATATO1629_2?TM1629
  +--> ?PR?_SEND_COMMAND_3?TM1629
  +--> ?PR?_WRITEDATATO1629_3?TM1629

?PR?_SEND_COMMAND?TM1629                         -----    -----
  +--> ?PR?_WRITEDATATO1629?TM1629

?PR?_SEND_COMMAND_2?TM1629                       -----    -----
  +--> ?PR?_SEND_COMMAND?TM1629
  +--> ?PR?_WRITEDATATO1629_2?TM1629

?PR?_SEND_COMMAND_3?TM1629                       -----    -----
  +--> ?PR?_SEND_COMMAND_2?TM1629
  +--> ?PR?_WRITEDATATO1629_3?TM1629

?PR?_GD5800_SELECT_CHAPTER?GD5800                05CFH    0002H
  +--> ?PR?_USART2_SENDDATA?USART

?PR?KEYPROCESS?KEY                               0584H    0004H
  +--> ?CO?KEY
  +--> ?PR?KEYDECODER?KEY
  +--> ?PR?RETURN_TWO_MENU_FB_E1?KEY
  +--> ?PR?RETURN_MAIN_PRESS_TIME?TIMER
BL51 BANKED LINKER/LOCATER V6.22                                                      03/10/2016  16:30:11  PAGE 9


  +--> ?PR?_DELETE_CALL_FUNCTION?AT24C256
  +--> ?PR?RETURN_SOUND_TABLE?KEY
  +--> ?PR?_GD5800_SELECT_CHAPTER?GD5800
  +--> ?PR?_SET_SOUND_TABLE?KEY
  +--> ?PR?_DELETE_HOST_FUNCTION?AT24C256
  +--> ?PR?_DELETE_ALARM_FUNCTION?AT24C256
  +--> ?PR?_DELETE_CANCEL_FUNCTION?AT24C256
  +--> ?PR?DELAY10MS?KEY
  +--> ?PR?_SET_FILTER_MAIN?TIMER
  +--> ?PR?VAR_INIT?KEY
  +--> ?PR?ENV_LOAD?KEY
  +--> ?PR?KEY_INIT?KEY
  +--> ?PR?_ISENDSTR?AT24C256
  +--> ?PR?DELETE_ALL_DATA?AT24C256
  +--> ?PR?CLEAR_MAIN_PRESS_TIME?TIMER
  +--> ?PR?LOGOUT?TM1629
  +--> ?PR?CYCLEUP?TM1629
  +--> ?PR?CYCLEDOWN?TM1629
  +--> ?PR?_TRANSMIT_SET_DATA?KEY
  +--> ?PR?RF_INI_RECEIVE?EV1527
  +--> ?PR?_SENDIRDATA?PCA
  +--> ?PR?PRINTER58MM_PRINT?PRINTER
  +--> ?PR?TM1629_LOAD?TM1629
  +--> ?PR?DISPLAY?TM1629

?CO?KEY                                          -----    -----
  +--> ?PR?FUN0?TM1629
  +--> ?PR?FUN1?TM1629
  +--> ?PR?FUN2?TM1629
  +--> ?PR?FUN3?TM1629
  +--> ?PR?FUN4?TM1629
  +--> ?PR?FUN5?TM1629
  +--> ?PR?FUN6?TM1629
  +--> ?PR?FUN7?TM1629
  +--> ?PR?FUN8?TM1629
  +--> ?PR?FUN9?TM1629
  +--> ?PR?FUN10?TM1629
  +--> ?PR?FUN11?TM1629
  +--> ?PR?FUN12?TM1629
  +--> ?PR?FUN13?TM1629
  +--> ?PR?FUN14?TM1629
  +--> ?PR?FUN15?TM1629
  +--> ?PR?FUN16?TM1629
  +--> ?PR?FUN17?TM1629
  +--> ?PR?FUN18?TM1629
  +--> ?PR?FUN19?TM1629
  +--> ?PR?FUN20?TM1629
  +--> ?PR?FUN21?TM1629
  +--> ?PR?FUN22?TM1629
  +--> ?PR?FUN23?TM1629
  +--> ?PR?FUN24?TM1629
  +--> ?PR?FUN25?TM1629
  +--> ?PR?FUN26?TM1629
  +--> ?PR?FUN27?TM1629
  +--> ?PR?FUN28?TM1629
  +--> ?PR?FUN29?TM1629
  +--> ?PR?FUN30?TM1629
BL51 BANKED LINKER/LOCATER V6.22                                                      03/10/2016  16:30:11  PAGE 10


  +--> ?PR?FUN31?TM1629
  +--> ?PR?FUN32?TM1629
  +--> ?PR?FUN33?TM1629
  +--> ?PR?FUN34?TM1629
  +--> ?PR?FUN35?TM1629
  +--> ?PR?FUN36?TM1629
  +--> ?PR?FUN37?TM1629
  +--> ?PR?FUN38?TM1629
  +--> ?PR?FUN39?TM1629
  +--> ?PR?FUN40?TM1629
  +--> ?PR?FUN41?TM1629
  +--> ?PR?FUN42?TM1629
  +--> ?PR?FUN43?TM1629
  +--> ?PR?FUN44?TM1629
  +--> ?PR?FUN45?TM1629
  +--> ?PR?FUN46?TM1629
  +--> ?PR?FUN47?TM1629
  +--> ?PR?FUN48?TM1629
  +--> ?PR?FUN49?TM1629
  +--> ?PR?FUN50?TM1629
  +--> ?PR?FUN51?TM1629
  +--> ?PR?FUN52?TM1629
  +--> ?PR?FUN53?TM1629
  +--> ?PR?FUN54?TM1629
  +--> ?PR?FUN55?TM1629
  +--> ?PR?FUN56?TM1629
  +--> ?PR?FUN57?TM1629
  +--> ?PR?FUN58?TM1629
  +--> ?PR?FUN59?TM1629
  +--> ?PR?FUN60?TM1629
  +--> ?PR?FUN61?TM1629
  +--> ?PR?FUN62?TM1629
  +--> ?PR?FUN63?TM1629
  +--> ?PR?FUN64?TM1629
  +--> ?PR?FUN65?TM1629
  +--> ?PR?FUN66?TM1629
  +--> ?PR?FUN67?TM1629
  +--> ?PR?FUN68?TM1629
  +--> ?PR?FUN69?TM1629
  +--> ?PR?FUN70?TM1629
  +--> ?PR?FUN71?TM1629
  +--> ?PR?FUN72?TM1629
  +--> ?PR?FUN73?TM1629
  +--> ?PR?FUN74?TM1629
  +--> ?PR?FUN75?TM1629
  +--> ?PR?FUN76?TM1629
  +--> ?PR?FUN77?TM1629
  +--> ?PR?FUN78?TM1629
  +--> ?PR?FUN79?TM1629
  +--> ?PR?FUN80?TM1629
  +--> ?PR?FUN81?TM1629
  +--> ?PR?FUN82?TM1629
  +--> ?PR?FUN83?TM1629
  +--> ?PR?FUN84?TM1629
  +--> ?PR?FUN85?TM1629
  +--> ?PR?FUN86?TM1629
  +--> ?PR?FUN87?TM1629
BL51 BANKED LINKER/LOCATER V6.22                                                      03/10/2016  16:30:11  PAGE 11


  +--> ?PR?FUN88?TM1629
  +--> ?PR?FUN89?TM1629
  +--> ?PR?FUN90?TM1629
  +--> ?PR?FUN91?TM1629
  +--> ?PR?FUN92?TM1629
  +--> ?PR?FUN93?TM1629
  +--> ?PR?FUN94?TM1629
  +--> ?PR?FUN95?TM1629
  +--> ?PR?FUN96?TM1629
  +--> ?PR?FUN97?TM1629
  +--> ?PR?FUN98?TM1629
  +--> ?PR?FUN99?TM1629
  +--> ?PR?FUN100?TM1629
  +--> ?PR?FUN101?TM1629
  +--> ?PR?FUN102?TM1629
  +--> ?PR?FUN103?TM1629
  +--> ?PR?FUN104?TM1629
  +--> ?PR?FUN105?TM1629
  +--> ?PR?FUN106?TM1629

?PR?FUN0?TM1629                                  -----    -----
  +--> ?PR?RETURN_TWO_MENU_FC_E1?KEY
  +--> ?PR?TM1629_AWAIT?TM1629
  +--> ?PR?DISPLAY_TIME?TM1629
  +--> ?PR?RETURN_TWO_MENU_FB_E1?KEY
  +--> ?PR?TM1629_DISPLAY_BUFF_CLEAR?TM1629

?PR?TM1629_AWAIT?TM1629                          -----    -----
  +--> ?PR?RETURN_AWAIT_NUMBER_TABLE?TIMER
  +--> ?PR?TM1629_CLEAR?TM1629
  +--> ?PR?TM1629_LOAD?TM1629
  +--> ?PR?DISPLAY?TM1629
  +--> ?PR?_SET_AWAIT_NUMBER_TABLE?TIMER

?PR?TM1629_LOAD?TM1629                           -----    -----
  +--> ?PR?TM1629_CLEAR?TM1629
  +--> ?PR?_MCURAM_TO_DISPLAYRAM?TM1629
  +--> ?PR?_TRANSMIT_SHOW_FOUR_NUMBER?TM1629
  +--> ?PR?_TRANSMIT_SHOW_THREE_NUMBER?TM1629
  +--> ?PR?TRANSMIT_SHOW_TWO_NUMBER?TM1629
  +--> ?PR?TRANSMIT_SHOW_WAIT_NUMBER?TM1629

?PR?_MCURAM_TO_DISPLAYRAM?TM1629                 05BAH    0006H

?PR?TRANSMIT_SHOW_TWO_NUMBER?TM1629              05BAH    0001H
  +--> ?PR?RETURN_TWO_MENU_F3_E2?KEY

?PR?DISPLAY_TIME?TM1629                          -----    -----
  +--> ?PR?RETURN_TWO_MENU_F6_E7?KEY
  +--> ?PR?TM1629_CLEAR?TM1629
  +--> ?PR?DS1302_READ_TIME?DS1302
  +--> ?PR?DISPLAY?TM1629

?PR?DS1302_READ_TIME?DS1302                      -----    -----
  +--> ?PR?_DS1302_READ_BYTE?DS1302

?PR?FUN1?TM1629                                  -----    -----
BL51 BANKED LINKER/LOCATER V6.22                                                      03/10/2016  16:30:11  PAGE 12


  +--> ?PR?_TM1629_F?TM1629

?PR?_TM1629_F?TM1629                             -----    -----
  +--> ?PR?TM1629_CLEAR?TM1629
  +--> ?PR?DISPLAY?TM1629

?PR?FUN2?TM1629                                  -----    -----
  +--> ?PR?_TM1629_F?TM1629
  +--> ?PR?RETURN_SOUND_TABLE?KEY
  +--> ?PR?RETURN_TWO_MENU_F6_E6?KEY
  +--> ?PR?_GD5800_SELECT_CHAPTER?GD5800
  +--> ?PR?_SET_SOUND_TABLE?KEY

?PR?FUN3?TM1629                                  -----    -----
  +--> ?PR?_TM1629_F?TM1629
  +--> ?PR?RETURN_SOUND_TABLE?KEY
  +--> ?PR?RETURN_TWO_MENU_F6_E6?KEY
  +--> ?PR?_GD5800_SELECT_CHAPTER_NEW?GD5800
  +--> ?PR?_SET_SOUND_TABLE?KEY

?PR?_GD5800_SELECT_CHAPTER_NEW?GD5800            05BDH    0002H
  +--> ?PR?_GD5800_SELECT_CHAPTER?GD5800
  +--> ?PR?DELAY10MS?KEY
  +--> ?PR?_SET_SOUND_TABLE?KEY

?PR?FUN4?TM1629                                  -----    -----
  +--> ?PR?_TM1629_F?TM1629
  +--> ?PR?RETURN_SOUND_TABLE?KEY
  +--> ?PR?RETURN_TWO_MENU_F6_E6?KEY
  +--> ?PR?_GD5800_SELECT_CHAPTER_NEW?GD5800
  +--> ?PR?_SET_SOUND_TABLE?KEY

?PR?FUN5?TM1629                                  -----    -----
  +--> ?PR?_TM1629_F?TM1629
  +--> ?PR?RETURN_SOUND_TABLE?KEY
  +--> ?PR?RETURN_TWO_MENU_F6_E6?KEY
  +--> ?PR?_GD5800_SELECT_CHAPTER_NEW?GD5800
  +--> ?PR?_SET_SOUND_TABLE?KEY

?PR?FUN6?TM1629                                  -----    -----
  +--> ?PR?_TM1629_F?TM1629
  +--> ?PR?RETURN_SOUND_TABLE?KEY
  +--> ?PR?RETURN_TWO_MENU_F6_E6?KEY
  +--> ?PR?_GD5800_SELECT_CHAPTER_NEW?GD5800
  +--> ?PR?_SET_SOUND_TABLE?KEY

?PR?FUN7?TM1629                                  -----    -----
  +--> ?PR?_TM1629_F?TM1629
  +--> ?PR?RETURN_SOUND_TABLE?KEY
  +--> ?PR?RETURN_TWO_MENU_F6_E6?KEY
  +--> ?PR?_GD5800_SELECT_CHAPTER_NEW?GD5800
  +--> ?PR?_SET_SOUND_TABLE?KEY

?PR?FUN8?TM1629                                  -----    -----
  +--> ?PR?_TM1629_F?TM1629
  +--> ?PR?RETURN_SOUND_TABLE?KEY
  +--> ?PR?RETURN_TWO_MENU_F6_E6?KEY
BL51 BANKED LINKER/LOCATER V6.22                                                      03/10/2016  16:30:11  PAGE 13


  +--> ?PR?_GD5800_SELECT_CHAPTER_NEW?GD5800
  +--> ?PR?_SET_SOUND_TABLE?KEY

?PR?FUN9?TM1629                                  -----    -----
  +--> ?PR?_TM1629_F?TM1629
  +--> ?PR?RETURN_SOUND_TABLE?KEY
  +--> ?PR?RETURN_TWO_MENU_F6_E6?KEY
  +--> ?PR?_GD5800_SELECT_CHAPTER_NEW?GD5800
  +--> ?PR?_SET_SOUND_TABLE?KEY

?PR?FUN10?TM1629                                 -----    -----
  +--> ?PR?_TM1629_F?TM1629
  +--> ?PR?RETURN_SOUND_TABLE?KEY
  +--> ?PR?RETURN_TWO_MENU_F6_E6?KEY
  +--> ?PR?_GD5800_SELECT_CHAPTER_NEW?GD5800
  +--> ?PR?_SET_SOUND_TABLE?KEY

?PR?FUN11?TM1629                                 -----    -----
  +--> ?PR?_TM1629_F?TM1629

?PR?FUN12?TM1629                                 -----    -----
  +--> ?PR?_TM1629_F?TM1629

?PR?FUN13?TM1629                                 -----    -----
  +--> ?PR?_TM1629_F?TM1629

?PR?FUN14?TM1629                                 -----    -----
  +--> ?PR?_TM1629_F?TM1629
  +--> ?PR?_SET_FD_TABLE?TIMER

?PR?FUN15?TM1629                                 -----    -----
  +--> ?PR?RETURN_AWAIT_NUMBER_TABLE?TIMER
  +--> ?PR?DISPLAY_TIME?TM1629
  +--> ?PR?_SET_AWAIT_NUMBER_TABLE?TIMER
  +--> ?PR?RETURN_TWO_MENU_F6_E7?KEY
  +--> ?PR?DISPLAY?TM1629
  +--> ?PR?DS1302_WRITE_TIME?DS1302

?PR?DS1302_WRITE_TIME?DS1302                     -----    -----
  +--> ?PR?_DS1302_WRITE_BYTE?DS1302

?PR?FUN16?TM1629                                 -----    -----
  +--> ?PR?RETURN_AWAIT_NUMBER_TABLE?TIMER
  +--> ?PR?DISPLAY_TIME?TM1629
  +--> ?PR?_SET_AWAIT_NUMBER_TABLE?TIMER
  +--> ?PR?RETURN_TWO_MENU_F6_E7?KEY
  +--> ?PR?DISPLAY?TM1629
  +--> ?PR?DS1302_WRITE_TIME?DS1302

?PR?FUN17?TM1629                                 -----    -----
  +--> ?PR?RETURN_AWAIT_NUMBER_TABLE?TIMER
  +--> ?PR?DISPLAY_TIME?TM1629
  +--> ?PR?_SET_AWAIT_NUMBER_TABLE?TIMER
  +--> ?PR?RETURN_TWO_MENU_F6_E7?KEY
  +--> ?PR?DISPLAY?TM1629
  +--> ?PR?DS1302_WRITE_TIME?DS1302

BL51 BANKED LINKER/LOCATER V6.22                                                      03/10/2016  16:30:11  PAGE 14


?PR?FUN18?TM1629                                 -----    -----
  +--> ?PR?RETURN_AWAIT_NUMBER_TABLE?TIMER
  +--> ?PR?DISPLAY_TIME?TM1629
  +--> ?PR?_SET_AWAIT_NUMBER_TABLE?TIMER
  +--> ?PR?DISPLAY?TM1629
  +--> ?PR?DS1302_WRITE_TIME?DS1302

?PR?FUN19?TM1629                                 -----    -----
  +--> ?PR?RETURN_AWAIT_NUMBER_TABLE?TIMER
  +--> ?PR?DISPLAY_TIME?TM1629
  +--> ?PR?_SET_AWAIT_NUMBER_TABLE?TIMER
  +--> ?PR?DISPLAY?TM1629
  +--> ?PR?DS1302_WRITE_TIME?DS1302

?PR?FUN20?TM1629                                 -----    -----
  +--> ?PR?RETURN_TWO_MENU_FC_E1?KEY
  +--> ?PR?_SET_FUNC_INDEX?KEY
  +--> ?PR?RETURN_AWAIT_NUMBER_TABLE?TIMER
  +--> ?PR?DISPLAY_TIME?TM1629
  +--> ?PR?_SET_AWAIT_NUMBER_TABLE?TIMER
  +--> ?PR?DISPLAY?TM1629
  +--> ?PR?DS1302_WRITE_TIME?DS1302

?PR?FUN21?TM1629                                 -----    -----
  +--> ?PR?_TM1629_E?TM1629

?PR?_TM1629_E?TM1629                             -----    -----
  +--> ?PR?TM1629_CLEAR?TM1629
  +--> ?PR?DISPLAY?TM1629

?PR?FUN22?TM1629                                 -----    -----
  +--> ?PR?_TM1629_E?TM1629

?PR?FUN23?TM1629                                 -----    -----
  +--> ?PR?_TM1629_E?TM1629

?PR?FUN24?TM1629                                 -----    -----
  +--> ?PR?_TM1629_E?TM1629

?PR?FUN25?TM1629                                 -----    -----
  +--> ?PR?_TM1629_E?TM1629

?PR?FUN26?TM1629                                 -----    -----
  +--> ?PR?_TM1629_E?TM1629

?PR?FUN27?TM1629                                 -----    -----
  +--> ?PR?_TM1629_E?TM1629

?PR?FUN28?TM1629                                 -----    -----
  +--> ?PR?_TM1629_E?TM1629

?PR?FUN29?TM1629                                 -----    -----
  +--> ?PR?_TM1629_E?TM1629

?PR?FUN30?TM1629                                 -----    -----
  +--> ?PR?_TM1629_E?TM1629

BL51 BANKED LINKER/LOCATER V6.22                                                      03/10/2016  16:30:11  PAGE 15


?PR?FUN31?TM1629                                 -----    -----
  +--> ?PR?RETURN_TWO_MENU_F4_E1?KEY
  +--> ?PR?_SHOW_TWO_NUMBER?TM1629

?PR?_SHOW_TWO_NUMBER?TM1629                      -----    -----
  +--> ?PR?TM1629_CLEAR?TM1629
  +--> ?PR?DISPLAY?TM1629

?PR?FUN32?TM1629                                 -----    -----
  +--> ?PR?RETURN_TWO_MENU_F5_E1?KEY
  +--> ?PR?_SHOW_TWO_NUMBER?TM1629

?PR?FUN33?TM1629                                 -----    -----
  +--> ?PR?_TM1629_E?TM1629

?PR?FUN34?TM1629                                 -----    -----
  +--> ?PR?_TM1629_E?TM1629

?PR?FUN35?TM1629                                 -----    -----
  +--> ?PR?_TM1629_E?TM1629

?PR?FUN36?TM1629                                 -----    -----
  +--> ?PR?_TM1629_E?TM1629

?PR?FUN37?TM1629                                 -----    -----
  +--> ?PR?_TM1629_E?TM1629

?PR?FUN38?TM1629                                 -----    -----
  +--> ?PR?_TM1629_E?TM1629

?PR?FUN39?TM1629                                 -----    -----
  +--> ?PR?_TM1629_E?TM1629

?PR?FUN40?TM1629                                 -----    -----
  +--> ?PR?_TM1629_E?TM1629

?PR?FUN41?TM1629                                 -----    -----
  +--> ?PR?_TM1629_E?TM1629

?PR?FUN42?TM1629                                 -----    -----
  +--> ?PR?_TM1629_E?TM1629
  +--> ?PR?RETURN_TWO_MENU_F8_E1?KEY

?PR?FUN43?TM1629                                 -----    -----
  +--> ?PR?_TM1629_E?TM1629

?PR?FUN44?TM1629                                 -----    -----
  +--> ?PR?_TM1629_E?TM1629

?PR?FUN45?TM1629                                 -----    -----
  +--> ?PR?_TM1629_E?TM1629

?PR?FUN46?TM1629                                 -----    -----
  +--> ?PR?RETURN_RF_TRANS_COUNT?EV1527
  +--> ?PR?_SHOW_THREE_NUMBER?TM1629

?PR?_SHOW_THREE_NUMBER?TM1629                    -----    -----
BL51 BANKED LINKER/LOCATER V6.22                                                      03/10/2016  16:30:11  PAGE 16


  +--> ?PR?TM1629_CLEAR?TM1629
  +--> ?PR?DISPLAY?TM1629

?PR?FUN47?TM1629                                 -----    -----
  +--> ?PR?RETURN_TWO_MENU_FB_E1?KEY
  +--> ?PR?_SHOW_ONE_NUMBER?TM1629

?PR?_SHOW_ONE_NUMBER?TM1629                      -----    -----
  +--> ?PR?TM1629_CLEAR?TM1629
  +--> ?PR?DISPLAY?TM1629

?PR?FUN48?TM1629                                 -----    -----
  +--> ?PR?RETURN_TWO_MENU_FC_E1?KEY
  +--> ?PR?_SHOW_ONE_NUMBER?TM1629

?PR?FUN49?TM1629                                 0588H    0001H
  +--> ?PR?RETURN_FD_TABLE?TIMER
  +--> ?PR?_DISPLAY_LIGHT?TM1629
  +--> ?PR?_GD5800_SELECT_CHAPTER?GD5800
  +--> ?PR?TM1629_CLEAR?TM1629
  +--> ?PR?DISPLAY?TM1629

?PR?_DISPLAY_LIGHT?TM1629                        -----    -----
  +--> ?PR?_SEND_COMMAND?TM1629
  +--> ?PR?_WRITEDATATO1629?TM1629
  +--> ?PR?_SEND_COMMAND_2?TM1629
  +--> ?PR?_WRITEDATATO1629_2?TM1629
  +--> ?PR?_SEND_COMMAND_3?TM1629
  +--> ?PR?_WRITEDATATO1629_3?TM1629

?PR?FUN50?TM1629                                 -----    -----
  +--> ?PR?RETURN_AWAIT_NUMBER_TABLE?TIMER
  +--> ?PR?_SHOW_FOUR_NUMBER?TM1629
  +--> ?PR?_SET_AWAIT_NUMBER_TABLE?TIMER
  +--> ?PR?DISPLAY?TM1629

?PR?_SHOW_FOUR_NUMBER?TM1629                     -----    -----
  +--> ?PR?TM1629_CLEAR?TM1629
  +--> ?PR?DISPLAY?TM1629

?PR?FUN51?TM1629                                 -----    -----
  +--> ?PR?RETURN_AWAIT_NUMBER_TABLE?TIMER
  +--> ?PR?_SHOW_FOUR_NUMBER?TM1629
  +--> ?PR?_SET_AWAIT_NUMBER_TABLE?TIMER
  +--> ?PR?DISPLAY?TM1629

?PR?FUN52?TM1629                                 -----    -----
  +--> ?PR?RETURN_AWAIT_NUMBER_TABLE?TIMER
  +--> ?PR?_SHOW_FOUR_NUMBER?TM1629
  +--> ?PR?_SET_AWAIT_NUMBER_TABLE?TIMER
  +--> ?PR?DISPLAY?TM1629

?PR?FUN53?TM1629                                 -----    -----
  +--> ?PR?RETURN_AWAIT_NUMBER_TABLE?TIMER
  +--> ?PR?_SHOW_FOUR_NUMBER?TM1629
  +--> ?PR?_SET_AWAIT_NUMBER_TABLE?TIMER
  +--> ?PR?DISPLAY?TM1629
BL51 BANKED LINKER/LOCATER V6.22                                                      03/10/2016  16:30:11  PAGE 17



?PR?FUN54?TM1629                                 -----    -----
  +--> ?PR?RETURN_AWAIT_NUMBER_TABLE?TIMER
  +--> ?PR?_SHOW_FOUR_NUMBER?TM1629
  +--> ?PR?_SET_AWAIT_NUMBER_TABLE?TIMER
  +--> ?PR?DISPLAY?TM1629

?PR?FUN55?TM1629                                 -----    -----
  +--> ?PR?RETURN_AWAIT_NUMBER_TABLE?TIMER
  +--> ?PR?_SHOW_FOUR_NUMBER?TM1629
  +--> ?PR?_SET_AWAIT_NUMBER_TABLE?TIMER
  +--> ?PR?DISPLAY?TM1629

?PR?FUN56?TM1629                                 -----    -----
  +--> ?PR?RETURN_AWAIT_NUMBER_TABLE?TIMER
  +--> ?PR?_SHOW_FOUR_NUMBER?TM1629
  +--> ?PR?_SET_AWAIT_NUMBER_TABLE?TIMER
  +--> ?PR?DISPLAY?TM1629

?PR?FUN57?TM1629                                 -----    -----
  +--> ?PR?RETURN_AWAIT_NUMBER_TABLE?TIMER
  +--> ?PR?_SHOW_FOUR_NUMBER?TM1629
  +--> ?PR?_SET_AWAIT_NUMBER_TABLE?TIMER
  +--> ?PR?DISPLAY?TM1629

?PR?FUN58?TM1629                                 -----    -----
  +--> ?PR?RETURN_AWAIT_NUMBER_TABLE?TIMER
  +--> ?PR?_SHOW_FOUR_NUMBER?TM1629
  +--> ?PR?_SET_AWAIT_NUMBER_TABLE?TIMER
  +--> ?PR?DISPLAY?TM1629

?PR?FUN59?TM1629                                 -----    -----
  +--> ?PR?RETURN_AWAIT_NUMBER_TABLE?TIMER
  +--> ?PR?_SHOW_FOUR_NUMBER?TM1629
  +--> ?PR?_SET_AWAIT_NUMBER_TABLE?TIMER
  +--> ?PR?DISPLAY?TM1629

?PR?FUN60?TM1629                                 -----    -----
  +--> ?PR?RETURN_AWAIT_NUMBER_TABLE?TIMER
  +--> ?PR?_SHOW_FOUR_NUMBER?TM1629
  +--> ?PR?_SET_AWAIT_NUMBER_TABLE?TIMER
  +--> ?PR?DISPLAY?TM1629

?PR?FUN61?TM1629                                 -----    -----
  +--> ?PR?RETURN_AWAIT_NUMBER_TABLE?TIMER
  +--> ?PR?_SHOW_FOUR_NUMBER?TM1629
  +--> ?PR?_SET_AWAIT_NUMBER_TABLE?TIMER
  +--> ?PR?DISPLAY?TM1629

?PR?FUN62?TM1629                                 -----    -----
  +--> ?PR?RETURN_AWAIT_NUMBER_TABLE?TIMER
  +--> ?PR?_SHOW_FOUR_NUMBER?TM1629
  +--> ?PR?_SET_AWAIT_NUMBER_TABLE?TIMER
  +--> ?PR?DISPLAY?TM1629

?PR?FUN63?TM1629                                 -----    -----
  +--> ?PR?RETURN_AWAIT_NUMBER_TABLE?TIMER
BL51 BANKED LINKER/LOCATER V6.22                                                      03/10/2016  16:30:11  PAGE 18


  +--> ?PR?_SHOW_FOUR_NUMBER?TM1629
  +--> ?PR?_SET_AWAIT_NUMBER_TABLE?TIMER
  +--> ?PR?DISPLAY?TM1629

?PR?FUN64?TM1629                                 -----    -----
  +--> ?PR?RETURN_AWAIT_NUMBER_TABLE?TIMER
  +--> ?PR?_SHOW_FOUR_NUMBER?TM1629
  +--> ?PR?_SET_AWAIT_NUMBER_TABLE?TIMER
  +--> ?PR?DISPLAY?TM1629

?PR?FUN65?TM1629                                 -----    -----
  +--> ?PR?RETURN_AWAIT_NUMBER_TABLE?TIMER
  +--> ?PR?_SHOW_FOUR_NUMBER?TM1629
  +--> ?PR?_SET_AWAIT_NUMBER_TABLE?TIMER
  +--> ?PR?DISPLAY?TM1629

?PR?FUN66?TM1629                                 -----    -----
  +--> ?PR?RETURN_AWAIT_NUMBER_TABLE?TIMER
  +--> ?PR?_SHOW_FOUR_NUMBER?TM1629
  +--> ?PR?_SET_AWAIT_NUMBER_TABLE?TIMER
  +--> ?PR?DISPLAY?TM1629

?PR?FUN67?TM1629                                 -----    -----
  +--> ?PR?RETURN_AWAIT_NUMBER_TABLE?TIMER
  +--> ?PR?_SHOW_FOUR_NUMBER?TM1629
  +--> ?PR?_SET_AWAIT_NUMBER_TABLE?TIMER
  +--> ?PR?DISPLAY?TM1629

?PR?FUN68?TM1629                                 -----    -----
  +--> ?PR?RETURN_AWAIT_NUMBER_TABLE?TIMER
  +--> ?PR?_SHOW_FOUR_NUMBER?TM1629
  +--> ?PR?_SET_AWAIT_NUMBER_TABLE?TIMER
  +--> ?PR?DISPLAY?TM1629

?PR?FUN69?TM1629                                 -----    -----
  +--> ?PR?RETURN_AWAIT_NUMBER_TABLE?TIMER
  +--> ?PR?_SHOW_FOUR_NUMBER?TM1629
  +--> ?PR?_SET_AWAIT_NUMBER_TABLE?TIMER
  +--> ?PR?DISPLAY?TM1629

?PR?FUN70?TM1629                                 -----    -----
  +--> ?PR?RETURN_AWAIT_NUMBER_TABLE?TIMER
  +--> ?PR?_SHOW_FOUR_NUMBER?TM1629
  +--> ?PR?_SET_AWAIT_NUMBER_TABLE?TIMER
  +--> ?PR?DISPLAY?TM1629

?PR?FUN71?TM1629                                 -----    -----
  +--> ?PR?RETURN_AWAIT_NUMBER_TABLE?TIMER
  +--> ?PR?_SHOW_FOUR_NUMBER?TM1629
  +--> ?PR?_SET_AWAIT_NUMBER_TABLE?TIMER
  +--> ?PR?DISPLAY?TM1629

?PR?FUN72?TM1629                                 -----    -----
  +--> ?PR?RETURN_AWAIT_NUMBER_TABLE?TIMER
  +--> ?PR?_SHOW_FOUR_NUMBER?TM1629
  +--> ?PR?_SET_AWAIT_NUMBER_TABLE?TIMER
  +--> ?PR?DISPLAY?TM1629
BL51 BANKED LINKER/LOCATER V6.22                                                      03/10/2016  16:30:11  PAGE 19



?PR?FUN73?TM1629                                 -----    -----
  +--> ?PR?RETURN_AWAIT_NUMBER_TABLE?TIMER
  +--> ?PR?_SHOW_FOUR_NUMBER?TM1629
  +--> ?PR?_SET_AWAIT_NUMBER_TABLE?TIMER
  +--> ?PR?DISPLAY?TM1629

?PR?FUN74?TM1629                                 -----    -----
  +--> ?PR?RETURN_AWAIT_NUMBER_TABLE?TIMER
  +--> ?PR?_SHOW_FOUR_NUMBER?TM1629
  +--> ?PR?_SET_AWAIT_NUMBER_TABLE?TIMER
  +--> ?PR?DISPLAY?TM1629

?PR?FUN75?TM1629                                 -----    -----
  +--> ?PR?RETURN_AWAIT_NUMBER_TABLE?TIMER
  +--> ?PR?_SHOW_FOUR_NUMBER?TM1629
  +--> ?PR?_SET_AWAIT_NUMBER_TABLE?TIMER
  +--> ?PR?DISPLAY?TM1629

?PR?FUN76?TM1629                                 -----    -----
  +--> ?PR?RETURN_AWAIT_NUMBER_TABLE?TIMER
  +--> ?PR?_SHOW_FOUR_NUMBER?TM1629
  +--> ?PR?_SET_AWAIT_NUMBER_TABLE?TIMER
  +--> ?PR?DISPLAY?TM1629

?PR?FUN77?TM1629                                 -----    -----
  +--> ?PR?RETURN_AWAIT_NUMBER_TABLE?TIMER
  +--> ?PR?_SHOW_FOUR_NUMBER?TM1629
  +--> ?PR?_SET_AWAIT_NUMBER_TABLE?TIMER
  +--> ?PR?DISPLAY?TM1629

?PR?FUN78?TM1629                                 -----    -----
  +--> ?PR?RETURN_AWAIT_NUMBER_TABLE?TIMER
  +--> ?PR?_SHOW_FOUR_NUMBER?TM1629
  +--> ?PR?_SET_AWAIT_NUMBER_TABLE?TIMER
  +--> ?PR?DISPLAY?TM1629

?PR?FUN79?TM1629                                 -----    -----
  +--> ?PR?RETURN_AWAIT_NUMBER_TABLE?TIMER
  +--> ?PR?_SHOW_FOUR_NUMBER?TM1629
  +--> ?PR?_SET_AWAIT_NUMBER_TABLE?TIMER
  +--> ?PR?DISPLAY?TM1629

?PR?FUN80?TM1629                                 -----    -----
  +--> ?PR?RETURN_AWAIT_NUMBER_TABLE?TIMER
  +--> ?PR?_SHOW_FOUR_NUMBER?TM1629
  +--> ?PR?_SET_AWAIT_NUMBER_TABLE?TIMER
  +--> ?PR?DISPLAY?TM1629

?PR?FUN81?TM1629                                 -----    -----
  +--> ?PR?RETURN_AWAIT_NUMBER_TABLE?TIMER
  +--> ?PR?_SHOW_FOUR_NUMBER?TM1629
  +--> ?PR?_SET_AWAIT_NUMBER_TABLE?TIMER
  +--> ?PR?DISPLAY?TM1629

?PR?FUN82?TM1629                                 -----    -----
  +--> ?PR?RETURN_TWO_MENU_F3_E1?KEY
BL51 BANKED LINKER/LOCATER V6.22                                                      03/10/2016  16:30:11  PAGE 20


  +--> ?PR?_SHOW_ONE_NUMBER?TM1629

?PR?FUN83?TM1629                                 -----    -----
  +--> ?PR?RETURN_TWO_MENU_F3_E2?KEY
  +--> ?PR?_SHOW_TWO_NUMBER?TM1629

?PR?FUN84?TM1629                                 -----    -----
  +--> ?PR?RETURN_TWO_MENU_F6_E1?KEY
  +--> ?PR?_SHOW_ONE_NUMBER?TM1629

?PR?FUN85?TM1629                                 -----    -----
  +--> ?PR?RETURN_TWO_MENU_F6_E2?KEY
  +--> ?PR?_SHOW_ONE_NUMBER?TM1629

?PR?FUN86?TM1629                                 -----    -----
  +--> ?PR?RETURN_TWO_MENU_F6_E3?KEY
  +--> ?PR?_SHOW_ONE_NUMBER?TM1629

?PR?FUN87?TM1629                                 0588H    0001H
  +--> ?PR?RETURN_TWO_MENU_F6_E4?KEY
  +--> ?PR?_GD5800_SOUND_VOLUME?GD5800
  +--> ?PR?_SHOW_ONE_NUMBER?TM1629

?PR?_GD5800_SOUND_VOLUME?GD5800                  0589H    0001H
  +--> ?PR?_USART2_SENDDATA?USART

?PR?FUN88?TM1629                                 -----    -----
  +--> ?PR?RETURN_TWO_MENU_F6_E5?KEY
  +--> ?PR?_SHOW_ONE_NUMBER?TM1629

?PR?FUN89?TM1629                                 0588H    0001H
  +--> ?PR?RETURN_TWO_MENU_F7_E1?KEY
  +--> ?PR?_SHOW_ONE_NUMBER?TM1629
  +--> ?PR?SHOW_ON?TM1629
  +--> ?PR?SHOW_OFF?TM1629

?PR?SHOW_ON?TM1629                               -----    -----
  +--> ?PR?TM1629_CLEAR?TM1629
  +--> ?PR?DISPLAY?TM1629

?PR?SHOW_OFF?TM1629                              -----    -----
  +--> ?PR?TM1629_CLEAR?TM1629
  +--> ?PR?DISPLAY?TM1629

?PR?FUN90?TM1629                                 -----    -----
  +--> ?PR?RETURN_TWO_MENU_F7_E2?KEY
  +--> ?PR?_SHOW_ONE_NUMBER?TM1629

?PR?FUN91?TM1629                                 -----    -----
  +--> ?PR?RETURN_TWO_MENU_F7_E3?KEY
  +--> ?PR?_SHOW_ONE_NUMBER?TM1629

?PR?FUN92?TM1629                                 -----    -----
  +--> ?PR?RETURN_TWO_MENU_F7_E4?KEY
  +--> ?PR?_SHOW_ONE_NUMBER?TM1629

?PR?FUN93?TM1629                                 0588H    0001H
BL51 BANKED LINKER/LOCATER V6.22                                                      03/10/2016  16:30:11  PAGE 21


  +--> ?PR?RETURN_TWO_MENU_F8_E1?KEY
  +--> ?PR?_SHOW_ONE_NUMBER?TM1629
  +--> ?PR?DELETE_ALL_DATA?AT24C256
  +--> ?PR?RETURN_SOUND_TABLE?KEY
  +--> ?PR?_GD5800_SELECT_CHAPTER?GD5800
  +--> ?PR?_SET_SOUND_TABLE?KEY

?PR?DELETE_ALL_DATA?AT24C256                     058FH    0022H
  +--> ?CO?AT24C256
  +--> ?PR?_ISENDSTR?AT24C256
  +--> ?PR?DELAY10MS?KEY

?PR?_ISENDSTR?AT24C256                           05BEH    0007H
  +--> ?PR?START_I2C?AT24C256
  +--> ?PR?_SENDBYTE?AT24C256
  +--> ?PR?STOP_I2C?AT24C256

?PR?FUN94?TM1629                                 0588H    0001H
  +--> ?PR?RETURN_TWO_MENU_F8_E2?KEY
  +--> ?PR?_SHOW_TWO_NUMBER?TM1629
  +--> ?PR?RETURN_SOUND_TABLE?KEY
  +--> ?PR?_GD5800_SELECT_CHAPTER_NEW?GD5800
  +--> ?PR?RETURN_TWO_MENU_SET_SUCCESS?DECODER
  +--> ?PR?_SET_TWO_MENU_SET_SUCCESS?DECODER

?PR?FUN95?TM1629                                 0588H    0002H
  +--> ?PR?RETURN_TWO_MENU_F6_E1?KEY
  +--> ?PR?RETURN_TWO_MENU_F6_E8?KEY
  +--> ?PR?_GD5800_SELECT_CHAPTER?GD5800
  +--> ?PR?RETURN_AWAIT_NUMBER_TABLE?TIMER
  +--> ?PR?_SET_AWAIT_NUMBER_TABLE?TIMER

?PR?FUN96?TM1629                                 -----    -----
  +--> ?PR?_TM1629_E?TM1629

?PR?FUN97?TM1629                                 -----    -----
  +--> ?PR?RETURN_TWO_MENU_F6_E6?KEY
  +--> ?PR?_SHOW_ONE_NUMBER?TM1629

?PR?FUN98?TM1629                                 -----    -----
  +--> ?PR?_TM1629_E?TM1629

?PR?FUN99?TM1629                                 -----    -----
  +--> ?PR?RETURN_TWO_MENU_F6_E7?KEY
  +--> ?PR?_SHOW_ONE_NUMBER?TM1629

?PR?FUN100?TM1629                                -----    -----
  +--> ?PR?_TM1629_E?TM1629

?PR?FUN101?TM1629                                -----    -----
  +--> ?PR?RETURN_TWO_MENU_F6_E8?KEY
  +--> ?PR?_SHOW_ONE_NUMBER?TM1629

?PR?FUN102?TM1629                                -----    -----
  +--> ?PR?_TM1629_F?TM1629

?PR?FUN103?TM1629                                -----    -----
BL51 BANKED LINKER/LOCATER V6.22                                                      03/10/2016  16:30:11  PAGE 22


  +--> ?PR?_TM1629_E?TM1629

?PR?FUN104?TM1629                                -----    -----
  +--> ?PR?_TM1629_E?TM1629

?PR?FUN105?TM1629                                0588H    0009H
  +--> ?PR?RETURN_AWAIT_NUMBER_TABLE?TIMER
  +--> ?PR?TM1629_CLEAR?TM1629
  +--> ?PR?DISPLAY?TM1629
  +--> ?PR?_SET_AWAIT_NUMBER_TABLE?TIMER
  +--> ?PR?_IRCVSTR?AT24C256
  +--> ?PR?_USART1_SENDDATA?USART

?PR?_IRCVSTR?AT24C256                            05C8H    0007H
  +--> ?PR?START_I2C?AT24C256
  +--> ?PR?_SENDBYTE?AT24C256
  +--> ?PR?RCVBYTE?AT24C256
  +--> ?PR?ACK_I2C?AT24C256
  +--> ?PR?NOACK_I2C?AT24C256
  +--> ?PR?STOP_I2C?AT24C256

?PR?FUN106?TM1629                                -----    -----
  +--> ?PR?_ISENDSTR?AT24C256
  +--> ?PR?_USART1_SENDDATA?USART
  +--> ?PR?TM1629_CLEAR?TM1629
  +--> ?PR?DISPLAY?TM1629
  +--> ?PR?RETURN_AWAIT_NUMBER_TABLE?TIMER
  +--> ?PR?_SET_AWAIT_NUMBER_TABLE?TIMER

?PR?KEYDECODER?KEY                               0588H    0002H
  +--> ?PR?KEYSCAN?KEY
  +--> ?PR?RETURN_REGISTER_MANAGER?EV1527
  +--> ?PR?_SET_MAIN_PRESS_TIME?TIMER
  +--> ?PR?CLEAR_REGISTER_MANAGER?EV1527
  +--> ?PR?RETURN_FILTER_MAIN?TIMER
  +--> ?PR?RETURN_FILTER_OTHER?TIMER
  +--> ?PR?GD5800_STOP_MUSIC?GD5800
  +--> ?PR?DELAY10MS?KEY
  +--> ?PR?_SET_FILTER_OTHER?TIMER

?PR?KEYSCAN?KEY                                  058AH    0005H
  +--> ?PR?DELAY10MS?KEY
  +--> ?PR?CLEAR_RETURN_STANDBY_TIME?TIMER
  +--> ?PR?CLEAR_MAIN_PRESS_TIME?TIMER
  +--> ?PR?_SET_MAIN_PRESS_TIME_TABLE?TIMER
  +--> ?PR?RETURN_TWO_MENU_FB_E1?KEY
  +--> ?PR?RETURN_MAIN_PRESS_TIME?TIMER
  +--> ?PR?_TM1629_F?TM1629
  +--> ?PR?RETURN_TWO_MENU_F6_E6?KEY
  +--> ?PR?_GD5800_SELECT_CHAPTER?GD5800
  +--> ?PR?_GD5800_SELECT_CHAPTER_NEW?GD5800
  +--> ?PR?_DELETE_CALL_FUNCTION?AT24C256
  +--> ?PR?_DELETE_HOST_FUNCTION?AT24C256
  +--> ?PR?_DELETE_ALARM_FUNCTION?AT24C256
  +--> ?PR?_DELETE_CANCEL_FUNCTION?AT24C256
  +--> ?PR?_SHOW_ONE_NUMBER?TM1629
  +--> ?PR?RETURN_TWO_MENU_FC_E1?KEY
BL51 BANKED LINKER/LOCATER V6.22                                                      03/10/2016  16:30:11  PAGE 23


  +--> ?PR?_TM1629_E?TM1629
  +--> ?PR?RETURN_TWO_MENU_F8_E1?KEY
  +--> ?PR?VAR_INIT?KEY
  +--> ?PR?ENV_LOAD?KEY
  +--> ?PR?KEY_INIT?KEY
  +--> ?PR?_ISENDSTR?AT24C256
  +--> ?PR?DELETE_ALL_DATA?AT24C256
  +--> ?PR?_SET_LOGOUT_CYCLE_TABLE?TIMER
  +--> ?PR?TM1629_READ_KEY?TM1629

?PR?_DELETE_CALL_FUNCTION?AT24C256               058FH    002FH
  +--> ?CO?AT24C256
  +--> ?PR?_ISENDSTR?AT24C256
  +--> ?PR?DELAY10MS?KEY
  +--> ?PR?_IRCVSTR?AT24C256

?PR?_DELETE_HOST_FUNCTION?AT24C256               058FH    002FH
  +--> ?CO?AT24C256
  +--> ?PR?_ISENDSTR?AT24C256
  +--> ?PR?DELAY10MS?KEY
  +--> ?PR?_IRCVSTR?AT24C256

?PR?_DELETE_ALARM_FUNCTION?AT24C256              058FH    002FH
  +--> ?CO?AT24C256
  +--> ?PR?_ISENDSTR?AT24C256
  +--> ?PR?DELAY10MS?KEY
  +--> ?PR?_IRCVSTR?AT24C256

?PR?_DELETE_CANCEL_FUNCTION?AT24C256             058FH    002FH
  +--> ?CO?AT24C256
  +--> ?PR?_ISENDSTR?AT24C256
  +--> ?PR?DELAY10MS?KEY
  +--> ?PR?_IRCVSTR?AT24C256

?PR?ENV_LOAD?KEY                                 -----    -----
  +--> ?PR?_ISENDSTR?AT24C256
  +--> ?PR?DELAY10MS?KEY

?PR?TM1629_READ_KEY?TM1629                       058FH    0002H
  +--> ?PR?_SEND_COMMAND?TM1629

?PR?GD5800_STOP_MUSIC?GD5800                     -----    -----
  +--> ?PR?_USART2_SENDDATA?USART

?PR?LOGOUT?TM1629                                0588H    0001H
  +--> ?PR?RETURN_TWO_MENU_F3_E2?KEY
  +--> ?PR?_MCURAM_TO_MCURAM_UP?TM1629
  +--> ?PR?TM1629_LOAD?TM1629
  +--> ?PR?DISPLAY?TM1629
  +--> ?PR?_SET_FUNC_INDEX?KEY

?PR?CYCLEUP?TM1629                               0588H    0007H
  +--> ?CO?TM1629
  +--> ?PR?RETURN_TWO_MENU_F3_E2?KEY
  +--> ?PR?_MCURAM_TO_MCURAM_UP?TM1629
  +--> ?PR?TM1629_LOAD?TM1629
  +--> ?PR?DISPLAY?TM1629
BL51 BANKED LINKER/LOCATER V6.22                                                      03/10/2016  16:30:11  PAGE 24



?PR?CYCLEDOWN?TM1629                             0588H    0008H
  +--> ?CO?TM1629
  +--> ?PR?RETURN_TWO_MENU_F3_E2?KEY
  +--> ?PR?_MCURAM_TO_MCURAM_DOWN?TM1629
  +--> ?PR?TM1629_LOAD?TM1629
  +--> ?PR?DISPLAY?TM1629

?PR?_TRANSMIT_SET_DATA?KEY                       -----    -----
  +--> ?PR?TM1629_LOAD?TM1629
  +--> ?PR?DISPLAY?TM1629

?PR?_SENDIRDATA?PCA                              0588H    0002H

?PR?PRINTER58MM_PRINT?PRINTER                    0588H    0002H
  +--> ?PR?_SENDDATA?USART

?PR?DECODERPROCESS?DECODER                       0584H    0028H
  +--> ?PR?RETURN_FUNC_INDEX?KEY
  +--> ?PR?RETURN_TWO_MENU_F8_E1?KEY
  +--> ?PR?RETURN_TWO_MENU_F8_E2?KEY
  +--> ?PR?RETURN_TWO_MENU_F3_E1?KEY
  +--> ?PR?RETURN_TWO_MENU_F3_E2?KEY
  +--> ?PR?RETURN_TWO_MENU_F7_E1?KEY
  +--> ?PR?RETURN_TWO_MENU_F6_E1?KEY
  +--> ?PR?RETURN_TWO_MENU_F6_E2?KEY
  +--> ?PR?RECEIVE_RF_DECODER?EV1527
  +--> ?PR?RETURN_AGAIN_RECEIVE_RF_DECODER_F...
  +--> ?PR?_SET_LOGOUT_CYCLE_TABLE?TIMER
  +--> ?PR?_AWAIT_VOICE_PUT?DECODER
  +--> ?PR?TM1629_CLEAR?TM1629
  +--> ?PR?_GLOBAL_DISPLAY?TM1629
  +--> ?PR?_SET_FUNC_INDEX?KEY
  +--> ?PR?_FIND_RF_EEPROM?AT24C256
  +--> ?PR?RETURN_SECOND_FILTER_TABLE?TIMER
  +--> ?PR?CLEAR_SECOND_FILTER_TIME?TIMER
  +--> ?PR?_SET_SECOND_FILTER_TABLE?TIMER
  +--> ?PR?_CANCEL_FUNTION?TM1629
  +--> ?PR?TM1629_LOAD?TM1629
  +--> ?PR?DISPLAY?TM1629
  +--> ?PR?CLEAR_AGAIN_RECEIVE_RF_DECODER_FI...
  +--> ?PR?_REGISTER_CALL_FUNCTION?AT24C256
  +--> ?PR?DELAY10MS?KEY
  +--> ?PR?_REGISTER_HOST_FUNCTION?AT24C256
  +--> ?PR?_REGISTER_ALARM_FUNCTION?AT24C256
  +--> ?PR?_REGISTER_CANCEL_FUNCTION?AT24C256
  +--> ?PR?_SET_SOUND_TABLE?KEY
  +--> ?PR?_ISENDSTR?AT24C256
  +--> ?PR?LOGOUTPROCESS?TM1629
  +--> ?PR?CYCLEPROCESS?TM1629

?PR?RECEIVE_RF_DECODER?EV1527                    05ACH    0009H
  +--> ?PR?RETURN_FUNC_INDEX?KEY
  +--> ?PR?CLEAR_AGAIN_AND_AGAIN_TIME?TIMER
  +--> ?PR?CLEAR_RETURN_STANDBY_TIME?TIMER
  +--> ?PR?_FIND_RF_EEPROM_HOST?AT24C256
  +--> ?PR?_SET_SOUND_TABLE?KEY
BL51 BANKED LINKER/LOCATER V6.22                                                      03/10/2016  16:30:11  PAGE 25



?PR?_FIND_RF_EEPROM_HOST?AT24C256                05B5H    0013H
  +--> ?PR?_IRCVSTR?AT24C256
  +--> ?PR?RETURN_TWO_MENU_F8_E1?KEY

?PR?_AWAIT_VOICE_PUT?DECODER                     05ACH    0008H

?PR?_GLOBAL_DISPLAY?TM1629                       05ACH    0006H
  +--> ?PR?_DECODER_TEMP_TO_MCURAM?TM1629
  +--> ?PR?TM1629_LOAD?TM1629
  +--> ?PR?DISPLAY?TM1629

?PR?_DECODER_TEMP_TO_MCURAM?TM1629               05B2H    0006H

?PR?_FIND_RF_EEPROM?AT24C256                     05ACH    0007H
  +--> ?PR?_FIND_RF_EEPROM_CANCEL?AT24C256
  +--> ?PR?_FIND_RF_EEPROM_ALARM?AT24C256
  +--> ?PR?_FIND_RF_EEPROM_CALL?AT24C256

?PR?_FIND_RF_EEPROM_CANCEL?AT24C256              05B3H    0013H
  +--> ?PR?_IRCVSTR?AT24C256
  +--> ?PR?RETURN_TWO_MENU_F8_E1?KEY

?PR?_FIND_RF_EEPROM_ALARM?AT24C256               05B3H    0013H
  +--> ?PR?_IRCVSTR?AT24C256
  +--> ?PR?RETURN_TWO_MENU_F8_E1?KEY

?PR?_FIND_RF_EEPROM_CALL?AT24C256                05B3H    0013H
  +--> ?PR?_IRCVSTR?AT24C256
  +--> ?PR?RETURN_TWO_MENU_F8_E1?KEY

?PR?_CANCEL_FUNTION?TM1629                       05ACH    0012H
  +--> ?CO?TM1629
  +--> ?PR?RETURN_TWO_MENU_F3_E2?KEY
  +--> ?PR?GD5800_STOP_MUSIC?GD5800
  +--> ?PR?_MCURAM_TO_MCURAM_UP?TM1629
  +--> ?PR?_SET_FUNC_INDEX?KEY

?PR?_REGISTER_CALL_FUNCTION?AT24C256             05ACH    0011H
  +--> ?PR?_IRCVSTR?AT24C256
  +--> ?PR?RETURN_TWO_MENU_F8_E1?KEY
  +--> ?PR?_ISENDSTR?AT24C256
  +--> ?PR?_GD5800_SELECT_CHAPTER_NEW?GD5800

?PR?_REGISTER_HOST_FUNCTION?AT24C256             05ACH    0011H
  +--> ?PR?_IRCVSTR?AT24C256
  +--> ?PR?RETURN_TWO_MENU_F8_E1?KEY
  +--> ?PR?_GD5800_SELECT_CHAPTER?GD5800
  +--> ?PR?_ISENDSTR?AT24C256
  +--> ?PR?_GD5800_SELECT_CHAPTER_NEW?GD5800

?PR?_REGISTER_ALARM_FUNCTION?AT24C256            05ACH    0011H
  +--> ?PR?_IRCVSTR?AT24C256
  +--> ?PR?RETURN_TWO_MENU_F8_E1?KEY
  +--> ?PR?_GD5800_SELECT_CHAPTER?GD5800
  +--> ?PR?_ISENDSTR?AT24C256
  +--> ?PR?_GD5800_SELECT_CHAPTER_NEW?GD5800
BL51 BANKED LINKER/LOCATER V6.22                                                      03/10/2016  16:30:11  PAGE 26



?PR?_REGISTER_CANCEL_FUNCTION?AT24C256           05ACH    0011H
  +--> ?PR?_IRCVSTR?AT24C256
  +--> ?PR?RETURN_TWO_MENU_F8_E1?KEY
  +--> ?PR?_GD5800_SELECT_CHAPTER?GD5800
  +--> ?PR?_ISENDSTR?AT24C256
  +--> ?PR?_GD5800_SELECT_CHAPTER_NEW?GD5800

?PR?LOGOUTPROCESS?TM1629                         05ACH    0008H
  +--> ?PR?RETURN_TWO_MENU_F5_E1?KEY
  +--> ?PR?RETURN_TWO_MENU_F4_E1?KEY
  +--> ?PR?RETURN_LOGOUT_CYCLE_TABLE?TIMER
  +--> ?PR?RETURN_TWO_MENU_F3_E2?KEY
  +--> ?PR?RETURN_TWO_MENU_F3_E1?KEY
  +--> ?PR?RETURN_TWO_MENU_F6_E2?KEY
  +--> ?PR?_MCURAM_TO_MCURAM_UP?TM1629
  +--> ?PR?TM1629_LOAD?TM1629
  +--> ?PR?DISPLAY?TM1629
  +--> ?PR?_SET_LOGOUT_CYCLE_TABLE?TIMER
  +--> ?PR?_SET_FUNC_INDEX?KEY

?PR?CYCLEPROCESS?TM1629                          05ACH    000EH
  +--> ?CO?TM1629
  +--> ?PR?RETURN_TWO_MENU_F6_E3?KEY
  +--> ?PR?RETURN_TWO_MENU_F6_E1?KEY
  +--> ?PR?RETURN_TWO_MENU_F5_E1?KEY
  +--> ?PR?RETURN_TWO_MENU_F4_E1?KEY
  +--> ?PR?RETURN_LOGOUT_CYCLE_TABLE?TIMER
  +--> ?PR?_MCURAM_TO_MCURAM_DOWN?TM1629
  +--> ?PR?TM1629_LOAD?TM1629
  +--> ?PR?DISPLAY?TM1629
  +--> ?PR?_SET_LOGOUT_CYCLE_TABLE?TIMER
  +--> ?PR?_SUBMENUF6_1?GD5800

?PR?_SUBMENUF6_1?GD5800                          05BAH    0011H
  +--> ?PR?RETURN_TWO_MENU_F7_E1?KEY
  +--> ?PR?RETURN_TWO_MENU_F6_E7?KEY
  +--> ?PR?_GD5800_SELECT_CHAPTER?GD5800
  +--> ?PR?_SUBMENUF6_1_VOICESELECT?GD5800

?PR?_SUBMENUF6_1_VOICESELECT?GD5800              05CBH    0004H
  +--> ?PR?_GD5800_SELECT_CHAPTER?GD5800

?PR?AWAIT_VOICE_PROCESS?DECODER                  0584H    0009H
  +--> ?PR?RETURN_TWO_MENU_F6_E1?KEY
  +--> ?PR?RETURN_AGAIN_RECEIVE_RF_DECODER_F...
  +--> ?PR?_AWAIT_VOICE_GET?DECODER
  +--> ?PR?_DELAYMULTI10MS?KEY
  +--> ?PR?_SUBMENUF6_1?GD5800
  +--> ?PR?_AWAIT_VOICE_ARRAY_FORWARD?DECODER
  +--> ?PR?RETURN_TWO_MENU_F6_E2?KEY
  +--> ?PR?_VOICE_DISPLAY_SYNCHRONOUS_FUNTIO...

?PR?_AWAIT_VOICE_GET?DECODER                     058DH    0006H

?PR?_DELAYMULTI10MS?KEY                          -----    -----
  +--> ?PR?DELAY10MS?KEY
BL51 BANKED LINKER/LOCATER V6.22                                                      03/10/2016  16:30:11  PAGE 27



?PR?_AWAIT_VOICE_ARRAY_FORWARD?DECODER           058DH    0005H
  +--> ?PR?_AWAIT_VOICE_CYCLE_UP?DECODER

?PR?_AWAIT_VOICE_CYCLE_UP?DECODER                0592H    0003H

?PR?_VOICE_DISPLAY_SYNCHRONOUS_FUNTIO...         058DH    0004H
  +--> ?PR?_SEARCH_FUNTION?TM1629
  +--> ?PR?RETURN_TWO_MENU_F3_E2?KEY
  +--> ?PR?_MCURAM_TO_MCURAM_DOWN?TM1629
  +--> ?PR?_GLOBAL_DISPLAY?TM1629

?PR?_SEARCH_FUNTION?TM1629                       0591H    000DH
  +--> ?CO?TM1629
  +--> ?PR?RETURN_TWO_MENU_F3_E2?KEY
  +--> ?PR?_MCURAM_TO_MCURAM_UP?TM1629

?C_INITSEG                                       -----    -----
  +--> ?CO?USART

*** NEW ROOT ***************************************************

?PR?UART?USART                                   05D1H    0001H
  +--> ?PR?RETURN_FUNC_INDEX?KEY
  +--> ?PR?_USART1_SENDDATA?USART

*** NEW ROOT ***************************************************

?PR?TIMER0_ISR?TIMER                             05D2H    0002H
  +--> ?PR?RETURN_FUNC_INDEX?KEY
  +--> ?PR?RETURN_TWO_MENU_FC_E1?KEY
  +--> ?PR?RETURN_AGAIN_AND_AGAIN_DECODER_TA...
  +--> ?PR?CLEAR_AGAIN_AND_AGAIN_DECODER_TAB...
  +--> ?PR?_SET_FUNC_INDEX?KEY

*** NEW ROOT ***************************************************

?PR?TIMER1_ISR?TIMER                             -----    -----
  +--> ?PR?RETURN_FUNC_INDEX?KEY
  +--> ?PR?RF_DECODE_MAIN_SJZ_TEST?EV1527
  +--> ?PR?RF_DECODE_MAIN?EV1527

?PR?RF_DECODE_MAIN_SJZ_TEST?EV1527               -----    -----
  +--> ?PR?RF_INI_RECEIVE?EV1527

?PR?RF_DECODE_MAIN?EV1527                        -----    -----
  +--> ?PR?RF_INI_RECEIVE?EV1527



SYMBOL TABLE OF MODULE:  Receiver_keil (?C_STARTUP)

  VALUE           TYPE          NAME
  ----------------------------------

  -------         MODULE        ?C_STARTUP
  C:6D96H         SEGMENT       ?C_C51STARTUP
BL51 BANKED LINKER/LOCATER V6.22                                                      03/10/2016  16:30:11  PAGE 28


  I:0022H         SEGMENT       ?STACK
  C:0000H         PUBLIC        ?C_STARTUP
  D:00E0H         SYMBOL        ACC
  D:00F0H         SYMBOL        B
  D:0083H         SYMBOL        DPH
  D:0082H         SYMBOL        DPL
  N:0000H         SYMBOL        IBPSTACK
  N:0100H         SYMBOL        IBPSTACKTOP
  N:0080H         SYMBOL        IDATALEN
  C:6D99H         SYMBOL        IDATALOOP
  N:0000H         SYMBOL        PBPSTACK
  N:0100H         SYMBOL        PBPSTACKTOP
  N:0000H         SYMBOL        PDATALEN
  N:0000H         SYMBOL        PDATASTART
  N:0000H         SYMBOL        PPAGE
  N:0000H         SYMBOL        PPAGEENABLE
  D:00A0H         SYMBOL        PPAGE_SFR
  D:0081H         SYMBOL        SP
  C:6D96H         SYMBOL        STARTUP1
  N:0000H         SYMBOL        XBPSTACK
  N:0000H         SYMBOL        XBPSTACKTOP
  N:0000H         SYMBOL        XDATALEN
  N:0000H         SYMBOL        XDATASTART
  C:0000H         LINE#         126
  C:6D96H         LINE#         133
  C:6D98H         LINE#         134
  C:6D99H         LINE#         135
  C:6D9AH         LINE#         136
  C:6D9CH         LINE#         185
  C:6D9FH         LINE#         196
  -------         ENDMOD        ?C_STARTUP

  -------         MODULE        MAIN
  C:0000H         SYMBOL        _ICE_DUMMY_
  D:0092H         PUBLIC        P1M0
  D:0091H         PUBLIC        P1M1
  D:0080H         PUBLIC        P0
  D:00B2H         PUBLIC        P3M0
  D:0090H         PUBLIC        P1
  D:00B1H         PUBLIC        P3M1
  D:00A0H         PUBLIC        P2
  D:00B0H         PUBLIC        P3
  D:00C0H         PUBLIC        P4
  D:00C8H         PUBLIC        P5
  D:00E8H         PUBLIC        P6
  D:00F8H         PUBLIC        P7
  D:00A8H         PUBLIC        IE
  D:00B8H         PUBLIC        IP
  D:00D8H         PUBLIC        CCON
  C:7A06H         PUBLIC        main
  D:0098H         PUBLIC        SCON
  D:0088H         PUBLIC        TCON
  D:00D0H         PUBLIC        PSW
  -------         PROC          MAIN
  C:7A06H         LINE#         15
  C:7A06H         LINE#         16
  C:7A06H         LINE#         21
BL51 BANKED LINKER/LOCATER V6.22                                                      03/10/2016  16:30:11  PAGE 29


  C:7A09H         LINE#         29
  C:7A0CH         LINE#         33
  C:7A0FH         LINE#         37
  C:7A12H         LINE#         41
  C:7A15H         LINE#         45
  C:7A18H         LINE#         46
  C:7A1BH         LINE#         54
  C:7A1EH         LINE#         55
  C:7A21H         LINE#         57
  C:7A21H         LINE#         58
  C:7A24H         LINE#         59
  C:7A27H         LINE#         62
  C:7A2AH         LINE#         70
  C:7A2AH         LINE#         71
  C:7A2AH         LINE#         85
  C:7A2DH         LINE#         86
  C:7A30H         LINE#         96
  C:7A33H         LINE#         98
  -------         ENDPROC       MAIN
  -------         ENDMOD        MAIN

  -------         MODULE        USART
  C:0000H         SYMBOL        _ICE_DUMMY_
  D:0080H         PUBLIC        P0
  D:0090H         PUBLIC        P1
  D:00A0H         PUBLIC        P2
  D:00B0H         PUBLIC        P3
  D:00C0H         PUBLIC        P4
  D:00C8H         PUBLIC        P5
  B:00A8H.7       PUBLIC        EA
  D:00E8H         PUBLIC        P6
  D:00F8H         PUBLIC        P7
  X:066CH         SYMBOL        SPIOK
  X:066FH         SYMBOL        OKSPI
  C:793FH         PUBLIC        _SendString
  C:856FH         PUBLIC        _SendData
  D:00A2H         PUBLIC        P_SW1
  D:00BAH         PUBLIC        P_SW2
  D:00A8H         PUBLIC        IE
  X:0672H         PUBLIC        usart1_num
  X:0673H         PUBLIC        usart2_num
  B:00A8H.4       PUBLIC        ES
  D:00B8H         PUBLIC        IP
  X:0674H         SYMBOL        OK
  B:0098H.0       PUBLIC        RI
  B:0098H.1       PUBLIC        TI
  C:64D6H         PUBLIC        Uart
  D:00D8H         PUBLIC        CCON
  C:7F2EH         PUBLIC        UsartInit
  C:78D9H         PUBLIC        _Usart1_SendString
  C:790CH         PUBLIC        _Usart2_SendString
  C:855DH         PUBLIC        _Usart1_SendData
  C:8566H         PUBLIC        _Usart2_SendData
  X:0677H         PUBLIC        usart2_enable
  D:0099H         PUBLIC        SBUF
  D:0098H         PUBLIC        SCON
  D:0088H         PUBLIC        TCON
BL51 BANKED LINKER/LOCATER V6.22                                                      03/10/2016  16:30:11  PAGE 30


  C:71ACH         PUBLIC        _uart_printf
  D:00AFH         PUBLIC        IE2
  D:008EH         PUBLIC        AUXR
  B:0021H.1       PUBLIC        busy
  D:00E0H         PUBLIC        ACC
  X:0678H         PUBLIC        usart1_begin
  X:0679H         PUBLIC        usart2_begin
  D:00D6H         PUBLIC        T2H
  B:00D0H.0       PUBLIC        P
  C:6BE3H         PUBLIC        Uart2
  D:00D7H         PUBLIC        T2L
  X:067AH         PUBLIC        usart2_data
  D:009BH         PUBLIC        S2BUF
  X:067EH         PUBLIC        usart2_right
  D:009AH         PUBLIC        S2CON
  D:00D0H         PUBLIC        PSW
  -------         PROC          UART
  -------         DO            
  X:05D1H         SYMBOL        temp
  -------         ENDDO         
  C:64D6H         LINE#         26
  C:64E3H         LINE#         28
  C:64E8H         LINE#         29
  C:64EEH         LINE#         30
  C:64EEH         LINE#         31
  C:64F0H         LINE#         33
  C:64F3H         LINE#         34
  C:6500H         LINE#         35
  C:6500H         LINE#         36
  C:6508H         LINE#         37
  C:6508H         LINE#         38
  C:650EH         LINE#         39
  C:6510H         LINE#         40
  C:6515H         LINE#         41
  C:6515H         LINE#         42
  C:6519H         LINE#         43
  C:6519H         LINE#         44
  C:651BH         LINE#         45
  C:6523H         LINE#         46
  C:6523H         LINE#         47
  C:6531H         LINE#         48
  C:6531H         LINE#         49
  C:6537H         LINE#         50
  C:653DH         LINE#         51
  C:6541H         LINE#         52
  C:6543H         LINE#         53
  C:654BH         LINE#         54
  C:654BH         LINE#         55
  C:655AH         LINE#         56
  C:6560H         LINE#         57
  C:6564H         LINE#         58
  C:6564H         LINE#         59
  C:6566H         LINE#         60
  C:656AH         LINE#         61
  C:6578H         LINE#         62
  C:6578H         LINE#         63
  C:657EH         LINE#         64
BL51 BANKED LINKER/LOCATER V6.22                                                      03/10/2016  16:30:11  PAGE 31


  C:6580H         LINE#         66
  C:6580H         LINE#         67
  C:6585H         LINE#         68
  C:6585H         LINE#         70
  C:6585H         LINE#         71
  C:6585H         LINE#         72
  C:6585H         LINE#         78
  C:6585H         LINE#         79
  C:6588H         LINE#         80
  C:6588H         LINE#         81
  C:658AH         LINE#         82
  C:658CH         LINE#         83
  C:658CH         LINE#         84
  -------         ENDPROC       UART
  -------         PROC          UART2
  -------         DO            
  D:000FH         SYMBOL        temp
  -------         ENDDO         
  C:6BE3H         LINE#         89
  C:6BF0H         LINE#         91
  C:6BF2H         LINE#         92
  C:6BF7H         LINE#         93
  C:6BF7H         LINE#         94
  C:6BFAH         LINE#         95
  C:6BFCH         LINE#         96
  C:6C04H         LINE#         97
  C:6C04H         LINE#         98
  C:6C0CH         LINE#         99
  C:6C0CH         LINE#         100
  C:6C1FH         LINE#         101
  C:6C1FH         LINE#         103
  C:6C26H         LINE#         104
  C:6C26H         LINE#         105
  C:6C2BH         LINE#         106
  C:6C2FH         LINE#         107
  C:6C34H         LINE#         108
  C:6C34H         LINE#         109
  C:6C34H         LINE#         110
  C:6C3BH         LINE#         111
  C:6C3BH         LINE#         112
  C:6C40H         LINE#         113
  C:6C44H         LINE#         114
  C:6C5BH         LINE#         115
  C:6C5BH         LINE#         116
  C:6C60H         LINE#         117
  C:6C60H         LINE#         118
  C:6C60H         LINE#         122
  C:6C60H         LINE#         123
  C:6C65H         LINE#         124
  C:6C65H         LINE#         125
  C:6C68H         LINE#         126
  C:6C6AH         LINE#         127
  C:6C6AH         LINE#         128
  -------         ENDPROC       UART2
  -------         PROC          _USART1_SENDDATA
  D:0007H         SYMBOL        dat
  C:855DH         LINE#         133
BL51 BANKED LINKER/LOCATER V6.22                                                      03/10/2016  16:30:11  PAGE 32


  C:855DH         LINE#         134
  C:855DH         LINE#         135
  C:8560H         LINE#         136
  C:8561H         LINE#         137
  C:8561H         LINE#         138
  C:8561H         LINE#         144
  C:8561H         LINE#         146
  C:8561H         LINE#         152
  C:8561H         LINE#         153
  C:8563H         LINE#         154
  C:8565H         LINE#         155
  -------         ENDPROC       _USART1_SENDDATA
  -------         PROC          _USART1_SENDSTRING
  X:06C7H         SYMBOL        s
  C:78D9H         LINE#         160
  C:78E4H         LINE#         161
  C:78E4H         LINE#         162
  C:78F4H         LINE#         163
  C:78F4H         LINE#         164
  C:7909H         LINE#         165
  C:790BH         LINE#         166
  -------         ENDPROC       _USART1_SENDSTRING
  -------         PROC          _USART2_SENDDATA
  D:0007H         SYMBOL        dat
  C:8566H         LINE#         171
  C:8566H         LINE#         172
  C:8566H         LINE#         173
  C:8569H         LINE#         174
  C:856AH         LINE#         175
  C:856AH         LINE#         176
  C:856AH         LINE#         182
  C:856AH         LINE#         184
  C:856AH         LINE#         190
  C:856AH         LINE#         191
  C:856CH         LINE#         192
  C:856EH         LINE#         193
  -------         ENDPROC       _USART2_SENDDATA
  -------         PROC          _USART2_SENDSTRING
  X:06CAH         SYMBOL        s
  C:790CH         LINE#         198
  C:7917H         LINE#         199
  C:7917H         LINE#         200
  C:7927H         LINE#         201
  C:7927H         LINE#         202
  C:793CH         LINE#         203
  C:793EH         LINE#         204
  -------         ENDPROC       _USART2_SENDSTRING
  -------         PROC          _SENDDATA
  D:0007H         SYMBOL        dat
  C:856FH         LINE#         210
  C:856FH         LINE#         211
  C:856FH         LINE#         212
  C:8572H         LINE#         213
  C:8573H         LINE#         214
  C:8573H         LINE#         215
  C:8573H         LINE#         221
  C:8573H         LINE#         223
BL51 BANKED LINKER/LOCATER V6.22                                                      03/10/2016  16:30:11  PAGE 33


  C:8573H         LINE#         229
  C:8573H         LINE#         230
  C:8575H         LINE#         231
  C:8577H         LINE#         232
  -------         ENDPROC       _SENDDATA
  -------         PROC          _SENDSTRING
  X:06CDH         SYMBOL        s
  C:793FH         LINE#         237
  C:794AH         LINE#         238
  C:794AH         LINE#         239
  C:795AH         LINE#         240
  C:795AH         LINE#         241
  C:796FH         LINE#         242
  C:7971H         LINE#         243
  -------         ENDPROC       _SENDSTRING
  -------         PROC          USARTINIT
  C:7F2EH         LINE#         246
  C:7F2EH         LINE#         247
  C:7F2EH         LINE#         248
  C:7F30H         LINE#         249
  C:7F32H         LINE#         250
  C:7F34H         LINE#         262
  C:7F37H         LINE#         266
  C:7F3AH         LINE#         274
  C:7F3DH         LINE#         282
  C:7F40H         LINE#         283
  C:7F43H         LINE#         284
  C:7F46H         LINE#         285
  C:7F49H         LINE#         286
  C:7F4BH         LINE#         287
  C:7F4EH         LINE#         288
  C:7F50H         LINE#         293
  -------         ENDPROC       USARTINIT
  -------         PROC          _UART_PRINTF
  X:03A5H         SYMBOL        fmt
  -------         DO            
  X:03A8H         SYMBOL        ellipsis_40
  X:03D0H         SYMBOL        ap
  X:03D3H         SYMBOL        string
  -------         ENDDO         
  C:71ACH         LINE#         295
  C:71B7H         LINE#         296
  C:71B7H         LINE#         300
  C:71C5H         LINE#         301
  C:71F8H         LINE#         302
  -------         ENDPROC       _UART_PRINTF
  -------         ENDMOD        USART

  -------         MODULE        KEY
  C:0000H         SYMBOL        _ICE_DUMMY_
  D:0080H         PUBLIC        P0
  D:0090H         PUBLIC        P1
  D:00A0H         PUBLIC        P2
  C:734FH         PUBLIC        _Transmit_set_data
  D:00B0H         PUBLIC        P3
  D:00C0H         PUBLIC        P4
  C:8379H         PUBLIC        _delaymulti10ms
BL51 BANKED LINKER/LOCATER V6.22                                                      03/10/2016  16:30:11  PAGE 34


  D:00C8H         PUBLIC        P5
  D:00E8H         PUBLIC        P6
  D:00F8H         PUBLIC        P7
  X:05D4H         PUBLIC        transmit_confirm_key_press
  X:05D5H         PUBLIC        Transmit_Data_set_FANGQU
  C:31E1H         PUBLIC        table
  D:00A8H         PUBLIC        IE
  C:0046H         PUBLIC        KeyProcess
  X:05D6H         PUBLIC        Two_Menu_Fb_E1
  X:05D7H         PUBLIC        Two_Menu_Fd_E1
  X:05D8H         PUBLIC        Send_status
  X:05D9H         PUBLIC        sound_table
  C:83FCH         PUBLIC        return_Two_Menu_Fb_E1
  D:00B8H         PUBLIC        IP
  C:8682H         PUBLIC        return_sound_table
  D:00D8H         PUBLIC        CCON
  X:05DAH         PUBLIC        func_index
  C:8610H         PUBLIC        return_func_index
  C:1BF5H         PUBLIC        KeyScan
  X:05DBH         PUBLIC        Transmit_Data
  D:0098H         PUBLIC        SCON
  D:0088H         PUBLIC        TCON
  B:00B0H.3       PUBLIC        P33
  B:00A0H.5       PUBLIC        P25
  B:0090H.7       PUBLIC        P17
  B:00B0H.6       PUBLIC        P36
  B:00C8H.5       PUBLIC        P55
  B:00B0H.7       PUBLIC        P37
  X:05DDH         PUBLIC        current_operation_index
  C:3539H         SYMBOL        _?ix1000
  D:00C7H         PUBLIC        IAP_CONTR
  C:8688H         PUBLIC        _set_sound_table
  C:698AH         PUBLIC        env_load
  B:00A8H.0       PUBLIC        EX0
  C:8507H         PUBLIC        delay10ms
  B:0088H.6       PUBLIC        TR1
  C:8616H         PUBLIC        _set_func_index
  D:00C1H         PUBLIC        WDT_CONTR
  X:05E0H         PUBLIC        Transmit_Data_FANGQU
  C:774BH         PUBLIC        key_init
  C:7201H         PUBLIC        var_init
  C:4947H         PUBLIC        env_init
  X:05E1H         PUBLIC        Two_Menu_F1_E1
  X:05E6H         PUBLIC        Two_Menu_F2_E1
  X:05EBH         PUBLIC        Two_Menu_F1_E2
  X:05F0H         PUBLIC        Two_Menu_F3_E1
  X:05F1H         PUBLIC        Two_Menu_F2_E2
  X:05F6H         PUBLIC        Two_Menu_F1_E3
  X:05FBH         PUBLIC        Two_Menu_F4_E1
  X:05FCH         PUBLIC        Two_Menu_F3_E2
  X:05FDH         PUBLIC        Two_Menu_F2_E3
  X:0602H         PUBLIC        Two_Menu_F1_E4
  X:0607H         PUBLIC        Two_Menu_F5_E1
  C:5068H         PUBLIC        KeyDecoder
  X:0608H         PUBLIC        Two_Menu_F2_E4
  X:060DH         PUBLIC        Two_Menu_F6_E1
  X:060EH         PUBLIC        accumulate_decoder
BL51 BANKED LINKER/LOCATER V6.22                                                      03/10/2016  16:30:11  PAGE 35


  X:060FH         PUBLIC        Two_Menu_F7_E1
  X:0610H         PUBLIC        Two_Menu_F6_E2
  X:0611H         PUBLIC        Two_Menu_F8_E1
  X:0612H         PUBLIC        Two_Menu_F7_E2
  X:0613H         PUBLIC        Two_Menu_F6_E3
  C:861CH         PUBLIC        return_Two_Menu_F3_E1
  X:0614H         PUBLIC        Two_Menu_F8_E2
  X:0615H         PUBLIC        Two_Menu_F7_E3
  X:0616H         PUBLIC        Two_Menu_F6_E4
  C:8628H         PUBLIC        return_Two_Menu_F4_E1
  C:8622H         PUBLIC        return_Two_Menu_F3_E2
  X:0617H         PUBLIC        Two_Menu_F7_E4
  X:0618H         PUBLIC        Two_Menu_F6_E5
  C:862EH         PUBLIC        return_Two_Menu_F5_E1
  X:0619H         PUBLIC        Two_Menu_F6_E6
  C:8634H         PUBLIC        return_Two_Menu_F6_E1
  X:061AH         PUBLIC        Two_Menu_F6_E7
  C:8664H         PUBLIC        return_Two_Menu_F7_E1
  C:863AH         PUBLIC        return_Two_Menu_F6_E2
  X:061BH         PUBLIC        Two_Menu_F6_E8
  C:83D6H         PUBLIC        return_Two_Menu_F8_E1
  C:866AH         PUBLIC        return_Two_Menu_F7_E2
  C:8640H         PUBLIC        return_Two_Menu_F6_E3
  C:867CH         PUBLIC        return_Two_Menu_F8_E2
  C:8670H         PUBLIC        return_Two_Menu_F7_E3
  C:8646H         PUBLIC        return_Two_Menu_F6_E4
  C:8676H         PUBLIC        return_Two_Menu_F7_E4
  C:864CH         PUBLIC        return_Two_Menu_F6_E5
  C:8652H         PUBLIC        return_Two_Menu_F6_E6
  C:8658H         PUBLIC        return_Two_Menu_F6_E7
  C:865EH         PUBLIC        return_Two_Menu_F6_E8
  X:061CH         PUBLIC        Two_Menu_FC_E1
  X:061DH         PUBLIC        Line_number
  C:83E9H         PUBLIC        return_Two_Menu_FC_E1
  D:00D0H         PUBLIC        PSW
  -------         PROC          KEYSCAN
  -------         DO            
  X:058AH         SYMBOL        Val
  X:058CH         SYMBOL        main_press_time_temp
  X:058DH         SYMBOL        single_long_press_process_complice
  X:058EH         SYMBOL        temp
  -------         ENDDO         
  C:1BF5H         LINE#         211
  C:1BF5H         LINE#         212
  C:1BF5H         LINE#         213
  C:1BFCH         LINE#         214
  C:1BFEH         LINE#         215
  C:1C00H         LINE#         216
  C:1C02H         LINE#         218
  C:1C11H         LINE#         219
  C:1C11H         LINE#         220
  C:1C14H         LINE#         221
  C:1C23H         LINE#         222
  C:1C23H         LINE#         223
  C:1C26H         LINE#         224
  C:1C32H         LINE#         225
  C:1C3EH         LINE#         226
BL51 BANKED LINKER/LOCATER V6.22                                                      03/10/2016  16:30:11  PAGE 36


  C:1C4AH         LINE#         227
  C:1C56H         LINE#         228
  C:1C65H         LINE#         229
  C:1C65H         LINE#         230
  C:1C68H         LINE#         231
  C:1C6DH         LINE#         232
  C:1C7CH         LINE#         233
  C:1C7CH         LINE#         234
  C:1C9BH         LINE#         235
  C:1C9BH         LINE#         236
  C:1CA3H         LINE#         237
  C:1CA8H         LINE#         238
  C:1CA8H         LINE#         239
  C:1CAEH         LINE#         240
  C:1CB5H         LINE#         241
  C:1CB7H         LINE#         242
  C:1CB9H         LINE#         243
  C:1CBEH         LINE#         244
  C:1CC4H         LINE#         245
  C:1CC4H         LINE#         246
  C:1CCBH         LINE#         247
  C:1CCEH         LINE#         249
  C:1CCEH         LINE#         250
  C:1CD5H         LINE#         251
  C:1CD5H         LINE#         252
  C:1CD5H         LINE#         253
  C:1CD5H         LINE#         254
  C:1CD5H         LINE#         255
  C:1CD8H         LINE#         256
  C:1CF0H         LINE#         257
  C:1CF0H         LINE#         258
  C:1CF8H         LINE#         259
  C:1D00H         LINE#         260
  C:1D00H         LINE#         261
  C:1D07H         LINE#         262
  C:1D12H         LINE#         263
  C:1D12H         LINE#         264
  C:1D19H         LINE#         265
  C:1D19H         LINE#         266
  C:1D1CH         LINE#         267
  C:1D1CH         LINE#         268
  C:1D1CH         LINE#         269
  C:1D1CH         LINE#         270
  C:1D1FH         LINE#         271
  C:1D37H         LINE#         272
  C:1D37H         LINE#         273
  C:1D3FH         LINE#         274
  C:1D47H         LINE#         275
  C:1D47H         LINE#         276
  C:1D4EH         LINE#         277
  C:1D59H         LINE#         278
  C:1D59H         LINE#         279
  C:1D60H         LINE#         280
  C:1D60H         LINE#         281
  C:1D63H         LINE#         282
  C:1D63H         LINE#         283
  C:1D63H         LINE#         284
BL51 BANKED LINKER/LOCATER V6.22                                                      03/10/2016  16:30:11  PAGE 37


  C:1D63H         LINE#         285
  C:1D66H         LINE#         286
  C:1D7EH         LINE#         287
  C:1D7EH         LINE#         288
  C:1D86H         LINE#         289
  C:1D8EH         LINE#         290
  C:1D8EH         LINE#         291
  C:1D95H         LINE#         292
  C:1DA0H         LINE#         293
  C:1DA0H         LINE#         294
  C:1DA7H         LINE#         295
  C:1DA7H         LINE#         296
  C:1DAAH         LINE#         297
  C:1DAAH         LINE#         298
  C:1DAAH         LINE#         299
  C:1DAAH         LINE#         300
  C:1DADH         LINE#         301
  C:1DC5H         LINE#         302
  C:1DC5H         LINE#         303
  C:1DCDH         LINE#         304
  C:1DD5H         LINE#         305
  C:1DD5H         LINE#         306
  C:1DDCH         LINE#         307
  C:1DE7H         LINE#         308
  C:1DE7H         LINE#         309
  C:1DEEH         LINE#         310
  C:1DEEH         LINE#         311
  C:1DF1H         LINE#         312
  C:1DF1H         LINE#         313
  C:1DF1H         LINE#         314
  C:1DF1H         LINE#         315
  C:1DF4H         LINE#         316
  C:1DFBH         LINE#         317
  C:1DFBH         LINE#         318
  C:1E03H         LINE#         319
  C:1E0BH         LINE#         320
  C:1E0BH         LINE#         321
  C:1E0BH         LINE#         322
  C:1E0BH         LINE#         323
  C:1E13H         LINE#         324
  C:1E16H         LINE#         325
  C:1E16H         LINE#         326
  C:1E16H         LINE#         327
  C:1E16H         LINE#         328
  C:1E19H         LINE#         329
  C:1E20H         LINE#         330
  C:1E20H         LINE#         331
  C:1E28H         LINE#         332
  C:1E30H         LINE#         333
  C:1E30H         LINE#         334
  C:1E30H         LINE#         335
  C:1E30H         LINE#         336
  C:1E38H         LINE#         337
  C:1E3BH         LINE#         338
  C:1E3BH         LINE#         339
  C:1E3BH         LINE#         340
  C:1E3BH         LINE#         341
BL51 BANKED LINKER/LOCATER V6.22                                                      03/10/2016  16:30:11  PAGE 38


  C:1E3EH         LINE#         342
  C:1E45H         LINE#         343
  C:1E45H         LINE#         344
  C:1E4DH         LINE#         345
  C:1E55H         LINE#         346
  C:1E55H         LINE#         347
  C:1E5CH         LINE#         348
  C:1E62H         LINE#         349
  C:1E62H         LINE#         350
  C:1E62H         LINE#         351
  C:1E62H         LINE#         352
  C:1E64H         LINE#         354
  C:1E6BH         LINE#         355
  C:1E6BH         LINE#         356
  C:1E73H         LINE#         357
  C:1E7BH         LINE#         358
  C:1E7BH         LINE#         359
  C:1E82H         LINE#         360
  C:1E88H         LINE#         361
  C:1E8DH         LINE#         362
  C:1E8DH         LINE#         363
  C:1E8DH         LINE#         364
  C:1E8DH         LINE#         365
  C:1E8FH         LINE#         367
  C:1E96H         LINE#         368
  C:1E96H         LINE#         369
  C:1E9EH         LINE#         370
  C:1EA6H         LINE#         371
  C:1EA6H         LINE#         372
  C:1EA6H         LINE#         373
  C:1EA6H         LINE#         374
  C:1EAEH         LINE#         375
  C:1EB1H         LINE#         376
  C:1EB7H         LINE#         377
  C:1EBAH         LINE#         378
  C:1EBAH         LINE#         379
  C:1EBDH         LINE#         380
  C:1EC5H         LINE#         381
  C:1EC5H         LINE#         382
  C:1ECDH         LINE#         383
  C:1ED5H         LINE#         384
  C:1ED5H         LINE#         385
  C:1EDCH         LINE#         386
  C:1EE2H         LINE#         387
  C:1EE5H         LINE#         388
  C:1EE8H         LINE#         389
  C:1EE8H         LINE#         393
  C:1EE8H         LINE#         394
  C:1EE8H         LINE#         395
  C:1EE8H         LINE#         396
  C:1EE8H         LINE#         397
  C:1EE8H         LINE#         398
  C:1EEAH         LINE#         399
  C:1EF5H         LINE#         400
  C:1EF5H         LINE#         401
  C:1EFDH         LINE#         402
  C:1F05H         LINE#         403
BL51 BANKED LINKER/LOCATER V6.22                                                      03/10/2016  16:30:11  PAGE 39


  C:1F05H         LINE#         404
  C:1F0CH         LINE#         405
  C:1F12H         LINE#         406
  C:1F15H         LINE#         407
  C:1F18H         LINE#         408
  C:1F1BH         LINE#         409
  C:1F30H         LINE#         410
  C:1F33H         LINE#         411
  C:1F48H         LINE#         412
  C:1F4BH         LINE#         413
  C:1F4EH         LINE#         414
  C:1F51H         LINE#         415
  C:1F54H         LINE#         419
  C:1F59H         LINE#         420
  C:1F5EH         LINE#         421
  C:1F61H         LINE#         422
  C:1F64H         LINE#         423
  C:1F64H         LINE#         424
  C:1F64H         LINE#         426
  C:1F67H         LINE#         427
  C:1F67H         LINE#         428
  C:1F73H         LINE#         429
  C:1F76H         LINE#         430
  C:1F82H         LINE#         431
  C:1F87H         LINE#         432
  C:1F8CH         LINE#         433
  C:1FB0H         LINE#         434
  C:1FB0H         LINE#         435
  C:1FB7H         LINE#         436
  C:1FB7H         LINE#         437
  C:1FBDH         LINE#         438
  C:1FBDH         LINE#         439
  C:1FC2H         LINE#         440
  C:1FC5H         LINE#         442
  C:1FC5H         LINE#         443
  C:1FCAH         LINE#         444
  C:1FCAH         LINE#         445
  C:1FCDH         LINE#         446
  C:1FCDH         LINE#         447
  C:1FCDH         LINE#         450
  C:1FD7H         LINE#         451
  C:1FD7H         LINE#         452
  C:1FDAH         LINE#         453
  C:1FE4H         LINE#         454
  C:1FE4H         LINE#         455
  C:1FEFH         LINE#         456
  C:1FF2H         LINE#         457
  C:2001H         LINE#         458
  C:2001H         LINE#         459
  C:2004H         LINE#         460
  C:2009H         LINE#         461
  C:201DH         LINE#         462
  C:201DH         LINE#         463
  C:203CH         LINE#         464
  C:203CH         LINE#         465
  C:2044H         LINE#         466
  C:2049H         LINE#         467
BL51 BANKED LINKER/LOCATER V6.22                                                      03/10/2016  16:30:11  PAGE 40


  C:2049H         LINE#         468
  C:204FH         LINE#         469
  C:2056H         LINE#         470
  C:2058H         LINE#         471
  C:205AH         LINE#         472
  C:205FH         LINE#         473
  C:2065H         LINE#         474
  C:2065H         LINE#         475
  C:206CH         LINE#         476
  C:206FH         LINE#         478
  C:206FH         LINE#         479
  C:2076H         LINE#         480
  C:2076H         LINE#         481
  C:2076H         LINE#         482
  C:2076H         LINE#         483
  C:2076H         LINE#         484
  C:2079H         LINE#         485
  C:2091H         LINE#         486
  C:2091H         LINE#         487
  C:2099H         LINE#         488
  C:20A1H         LINE#         489
  C:20A1H         LINE#         490
  C:20A8H         LINE#         491
  C:20B3H         LINE#         492
  C:20B3H         LINE#         493
  C:20BAH         LINE#         494
  C:20BAH         LINE#         495
  C:20BDH         LINE#         496
  C:20BDH         LINE#         497
  C:20BDH         LINE#         498
  C:20BDH         LINE#         499
  C:20C0H         LINE#         500
  C:20D8H         LINE#         501
  C:20D8H         LINE#         502
  C:20E0H         LINE#         503
  C:20E8H         LINE#         504
  C:20E8H         LINE#         505
  C:20EFH         LINE#         506
  C:20FAH         LINE#         507
  C:20FAH         LINE#         508
  C:2101H         LINE#         509
  C:2101H         LINE#         510
  C:2104H         LINE#         511
  C:2104H         LINE#         512
  C:2104H         LINE#         513
  C:2104H         LINE#         514
  C:2107H         LINE#         515
  C:211FH         LINE#         516
  C:211FH         LINE#         517
  C:2127H         LINE#         518
  C:212FH         LINE#         519
  C:212FH         LINE#         520
  C:2136H         LINE#         521
  C:2141H         LINE#         522
  C:2141H         LINE#         523
  C:2148H         LINE#         524
  C:2148H         LINE#         525
BL51 BANKED LINKER/LOCATER V6.22                                                      03/10/2016  16:30:11  PAGE 41


  C:214BH         LINE#         526
  C:214BH         LINE#         527
  C:214BH         LINE#         528
  C:214BH         LINE#         529
  C:214EH         LINE#         530
  C:2166H         LINE#         531
  C:2166H         LINE#         532
  C:216EH         LINE#         533
  C:2176H         LINE#         534
  C:2176H         LINE#         535
  C:217DH         LINE#         536
  C:2188H         LINE#         537
  C:2188H         LINE#         538
  C:218FH         LINE#         539
  C:218FH         LINE#         540
  C:2192H         LINE#         541
  C:2192H         LINE#         542
  C:2192H         LINE#         543
  C:2192H         LINE#         544
  C:2195H         LINE#         545
  C:219CH         LINE#         546
  C:219CH         LINE#         547
  C:21A4H         LINE#         548
  C:21ACH         LINE#         549
  C:21ACH         LINE#         550
  C:21ACH         LINE#         551
  C:21ACH         LINE#         552
  C:21B4H         LINE#         553
  C:21B7H         LINE#         554
  C:21B7H         LINE#         555
  C:21B7H         LINE#         556
  C:21B7H         LINE#         557
  C:21BAH         LINE#         558
  C:21C1H         LINE#         559
  C:21C1H         LINE#         560
  C:21C9H         LINE#         561
  C:21D1H         LINE#         562
  C:21D1H         LINE#         563
  C:21D1H         LINE#         564
  C:21D1H         LINE#         565
  C:21D9H         LINE#         566
  C:21DCH         LINE#         567
  C:21DCH         LINE#         568
  C:21DCH         LINE#         569
  C:21DCH         LINE#         570
  C:21DFH         LINE#         571
  C:21E6H         LINE#         572
  C:21E6H         LINE#         573
  C:21EEH         LINE#         574
  C:21F6H         LINE#         575
  C:21F6H         LINE#         576
  C:21FDH         LINE#         577
  C:2203H         LINE#         578
  C:2203H         LINE#         579
  C:2203H         LINE#         580
  C:2203H         LINE#         581
  C:2205H         LINE#         583
BL51 BANKED LINKER/LOCATER V6.22                                                      03/10/2016  16:30:11  PAGE 42


  C:220CH         LINE#         584
  C:220CH         LINE#         585
  C:2214H         LINE#         586
  C:221CH         LINE#         587
  C:221CH         LINE#         588
  C:2223H         LINE#         589
  C:2229H         LINE#         590
  C:222EH         LINE#         591
  C:222EH         LINE#         592
  C:222EH         LINE#         593
  C:222EH         LINE#         594
  C:2230H         LINE#         596
  C:2237H         LINE#         597
  C:2237H         LINE#         598
  C:223FH         LINE#         599
  C:2247H         LINE#         600
  C:2247H         LINE#         601
  C:2247H         LINE#         602
  C:2247H         LINE#         603
  C:224FH         LINE#         604
  C:2252H         LINE#         605
  C:2258H         LINE#         606
  C:225BH         LINE#         607
  C:225BH         LINE#         608
  C:225EH         LINE#         609
  C:2266H         LINE#         610
  C:2266H         LINE#         611
  C:226EH         LINE#         612
  C:2276H         LINE#         613
  C:2276H         LINE#         614
  C:227DH         LINE#         615
  C:2283H         LINE#         616
  C:2286H         LINE#         617
  C:2289H         LINE#         618
  C:2289H         LINE#         622
  C:2289H         LINE#         623
  C:2289H         LINE#         624
  C:2289H         LINE#         625
  C:2289H         LINE#         626
  C:2289H         LINE#         627
  C:228BH         LINE#         628
  C:2296H         LINE#         629
  C:2296H         LINE#         630
  C:229EH         LINE#         631
  C:22A6H         LINE#         632
  C:22A6H         LINE#         633
  C:22ADH         LINE#         634
  C:22B3H         LINE#         635
  C:22B6H         LINE#         636
  C:22B9H         LINE#         637
  C:22BCH         LINE#         638
  C:22D1H         LINE#         639
  C:22D4H         LINE#         640
  C:22E9H         LINE#         641
  C:22ECH         LINE#         642
  C:22EFH         LINE#         643
  C:22F2H         LINE#         644
BL51 BANKED LINKER/LOCATER V6.22                                                      03/10/2016  16:30:11  PAGE 43


  C:22F5H         LINE#         648
  C:22FAH         LINE#         649
  C:22FFH         LINE#         650
  C:2302H         LINE#         651
  C:2305H         LINE#         652
  C:2305H         LINE#         653
  C:2305H         LINE#         655
  C:2308H         LINE#         656
  C:2308H         LINE#         657
  C:230EH         LINE#         658
  C:2311H         LINE#         659
  C:2317H         LINE#         660
  C:231CH         LINE#         661
  C:2321H         LINE#         662
  C:2345H         LINE#         663
  C:2345H         LINE#         664
  C:234CH         LINE#         665
  C:234CH         LINE#         666
  C:2352H         LINE#         667
  C:2352H         LINE#         668
  C:2357H         LINE#         669
  C:2359H         LINE#         671
  C:2359H         LINE#         672
  C:235EH         LINE#         673
  C:235EH         LINE#         674
  C:2367H         LINE#         675
  C:2367H         LINE#         676
  C:2367H         LINE#         681
  C:236BH         LINE#         682
  -------         ENDPROC       KEYSCAN
  -------         PROC          KEYDECODER
  -------         DO            
  X:0588H         SYMBOL        key_val
  D:0007H         SYMBOL        register_manager_temp
  -------         ENDDO         
  C:5068H         LINE#         684
  C:5068H         LINE#         685
  C:5068H         LINE#         686
  C:506FH         LINE#         687
  C:5070H         LINE#         688
  C:507BH         LINE#         689
  C:507EH         LINE#         690
  C:508EH         LINE#         691
  C:508EH         LINE#         693
  C:5096H         LINE#         694
  C:5096H         LINE#         696
  C:50B9H         LINE#         697
  C:50B9H         LINE#         700
  C:50C3H         LINE#         701
  C:50C3H         LINE#         702
  C:50C9H         LINE#         703
  C:50CBH         LINE#         705
  C:50CBH         LINE#         706
  C:50D0H         LINE#         707
  C:50D0H         LINE#         708
  C:50D9H         LINE#         709
  C:50D9H         LINE#         710
BL51 BANKED LINKER/LOCATER V6.22                                                      03/10/2016  16:30:11  PAGE 44


  C:50DEH         LINE#         711
  C:50E3H         LINE#         712
  C:50E3H         LINE#         713
  C:50E3H         LINE#         714
  C:50E6H         LINE#         715
  C:50ECH         LINE#         716
  C:50ECH         LINE#         717
  C:50F1H         LINE#         718
  C:50F1H         LINE#         719
  C:50FCH         LINE#         720
  C:50FCH         LINE#         721
  C:5102H         LINE#         722
  C:5102H         LINE#         723
  C:5113H         LINE#         724
  C:5113H         LINE#         725
  C:5113H         LINE#         726
  C:5119H         LINE#         727
  C:5119H         LINE#         728
  C:5121H         LINE#         729
  C:5128H         LINE#         730
  C:5128H         LINE#         731
  C:512BH         LINE#         732
  C:512EH         LINE#         733
  C:512EH         LINE#         734
  C:512EH         LINE#         735
  C:512EH         LINE#         736
  C:5130H         LINE#         737
  C:5130H         LINE#         738
  C:5136H         LINE#         739
  C:5136H         LINE#         740
  C:513EH         LINE#         741
  C:513EH         LINE#         742
  C:513EH         LINE#         743
  C:5140H         LINE#         744
  C:5140H         LINE#         745
  C:5146H         LINE#         746
  C:5146H         LINE#         747
  C:514EH         LINE#         748
  C:514EH         LINE#         749
  C:514EH         LINE#         750
  C:5150H         LINE#         751
  C:5150H         LINE#         752
  C:515CH         LINE#         753
  C:515CH         LINE#         754
  C:5164H         LINE#         755
  C:5169H         LINE#         756
  C:5169H         LINE#         757
  C:5169H         LINE#         758
  C:5169H         LINE#         759
  C:5169H         LINE#         760
  C:5169H         LINE#         761
  C:5169H         LINE#         768
  C:5182H         LINE#         769
  C:5182H         LINE#         770
  C:5183H         LINE#         771
  C:5183H         LINE#         773
  C:5183H         LINE#         774
BL51 BANKED LINKER/LOCATER V6.22                                                      03/10/2016  16:30:11  PAGE 45


  C:519FH         LINE#         775
  C:519FH         LINE#         776
  C:51A2H         LINE#         777
  C:51A5H         LINE#         778
  C:51A8H         LINE#         779
  C:51ABH         LINE#         780
  C:51ADH         LINE#         781
  C:51ADH         LINE#         782
  C:51ADH         LINE#         785
  -------         ENDPROC       KEYDECODER
  -------         PROC          KEYPROCESS
  -------         DO            
  X:0584H         SYMBOL        Transmit_buf
  D:0007H         SYMBOL        key_value
  X:0587H         SYMBOL        main_press_time_temp
  -------         ENDDO         
  C:0046H         LINE#         787
  C:0046H         LINE#         788
  C:0046H         LINE#         790
  C:0059H         LINE#         792
  C:005FH         LINE#         793
  C:0062H         LINE#         794
  C:00D5H         LINE#         795
  C:00D5H         LINE#         797
  C:00D5H         LINE#         798
  C:00F3H         LINE#         799
  C:00F3H         LINE#         800
  C:00FBH         LINE#         801
  C:0103H         LINE#         802
  C:0103H         LINE#         803
  C:0108H         LINE#         804
  C:0108H         LINE#         805
  C:0108H         LINE#         806
  C:0108H         LINE#         807
  C:010BH         LINE#         808
  C:0123H         LINE#         809
  C:0123H         LINE#         810
  C:012BH         LINE#         811
  C:0130H         LINE#         812
  C:0130H         LINE#         813
  C:013BH         LINE#         814
  C:013BH         LINE#         815
  C:0141H         LINE#         816
  C:0141H         LINE#         817
  C:0148H         LINE#         819
  C:014DH         LINE#         820
  C:014DH         LINE#         821
  C:014DH         LINE#         822
  C:014DH         LINE#         823
  C:014DH         LINE#         824
  C:0150H         LINE#         828
  C:0168H         LINE#         829
  C:0168H         LINE#         830
  C:0170H         LINE#         831
  C:0175H         LINE#         832
  C:0175H         LINE#         833
  C:0180H         LINE#         834
BL51 BANKED LINKER/LOCATER V6.22                                                      03/10/2016  16:30:11  PAGE 46


  C:0180H         LINE#         835
  C:0186H         LINE#         836
  C:0186H         LINE#         837
  C:018DH         LINE#         839
  C:0192H         LINE#         840
  C:0192H         LINE#         841
  C:0192H         LINE#         842
  C:0192H         LINE#         843
  C:0192H         LINE#         844
  C:0195H         LINE#         846
  C:0195H         LINE#         847
  C:0198H         LINE#         848
  C:01B0H         LINE#         849
  C:01B0H         LINE#         850
  C:01B8H         LINE#         851
  C:01BDH         LINE#         852
  C:01BDH         LINE#         853
  C:01C8H         LINE#         854
  C:01C8H         LINE#         855
  C:01CEH         LINE#         856
  C:01CEH         LINE#         857
  C:01D5H         LINE#         859
  C:01DAH         LINE#         860
  C:01DAH         LINE#         861
  C:01DAH         LINE#         862
  C:01DAH         LINE#         863
  C:01DAH         LINE#         864
  C:01DCH         LINE#         866
  C:01DCH         LINE#         867
  C:01DEH         LINE#         868
  C:01F6H         LINE#         869
  C:01F6H         LINE#         870
  C:01FEH         LINE#         871
  C:0203H         LINE#         872
  C:0203H         LINE#         873
  C:020EH         LINE#         874
  C:020EH         LINE#         875
  C:0214H         LINE#         876
  C:0214H         LINE#         877
  C:021BH         LINE#         879
  C:0220H         LINE#         880
  C:0220H         LINE#         881
  C:0220H         LINE#         882
  C:0223H         LINE#         883
  C:0223H         LINE#         884
  C:0226H         LINE#         886
  C:0236H         LINE#         887
  C:0239H         LINE#         888
  C:0240H         LINE#         889
  C:0240H         LINE#         890
  C:0248H         LINE#         891
  C:0250H         LINE#         892
  C:0250H         LINE#         893
  C:0256H         LINE#         894
  C:025BH         LINE#         895
  C:025BH         LINE#         896
  C:025BH         LINE#         897
BL51 BANKED LINKER/LOCATER V6.22                                                      03/10/2016  16:30:11  PAGE 47


  C:025EH         LINE#         898
  C:0265H         LINE#         899
  C:0265H         LINE#         900
  C:026DH         LINE#         901
  C:0275H         LINE#         902
  C:0275H         LINE#         903
  C:027BH         LINE#         904
  C:0280H         LINE#         905
  C:0280H         LINE#         906
  C:0280H         LINE#         907
  C:0283H         LINE#         908
  C:028AH         LINE#         909
  C:028AH         LINE#         910
  C:0292H         LINE#         911
  C:029AH         LINE#         912
  C:029AH         LINE#         913
  C:02A0H         LINE#         914
  C:02A5H         LINE#         915
  C:02A5H         LINE#         916
  C:02A5H         LINE#         917
  C:02A8H         LINE#         918
  C:02AFH         LINE#         919
  C:02AFH         LINE#         920
  C:02B7H         LINE#         921
  C:02BFH         LINE#         922
  C:02BFH         LINE#         923
  C:02C5H         LINE#         924
  C:02CAH         LINE#         925
  C:02CAH         LINE#         926
  C:02CAH         LINE#         927
  C:02CDH         LINE#         929
  C:02D4H         LINE#         930
  C:02D4H         LINE#         931
  C:02DCH         LINE#         932
  C:02E4H         LINE#         933
  C:02E4H         LINE#         934
  C:02EAH         LINE#         935
  C:02EFH         LINE#         936
  C:02EFH         LINE#         937
  C:02EFH         LINE#         938
  C:02F2H         LINE#         940
  C:02F9H         LINE#         941
  C:02F9H         LINE#         942
  C:0301H         LINE#         943
  C:0309H         LINE#         944
  C:0309H         LINE#         945
  C:030FH         LINE#         946
  C:0314H         LINE#         947
  C:0314H         LINE#         948
  C:0314H         LINE#         949
  C:0317H         LINE#         950
  C:031FH         LINE#         951
  C:031FH         LINE#         952
  C:0327H         LINE#         953
  C:032FH         LINE#         954
  C:032FH         LINE#         955
  C:0336H         LINE#         956
BL51 BANKED LINKER/LOCATER V6.22                                                      03/10/2016  16:30:11  PAGE 48


  C:0339H         LINE#         957
  C:033CH         LINE#         958
  C:033CH         LINE#         962
  C:033CH         LINE#         963
  C:033CH         LINE#         964
  C:033CH         LINE#         965
  C:033CH         LINE#         966
  C:033EH         LINE#         967
  C:0346H         LINE#         968
  C:0346H         LINE#         969
  C:034EH         LINE#         970
  C:0356H         LINE#         971
  C:0356H         LINE#         972
  C:035DH         LINE#         973
  C:0360H         LINE#         974
  C:0363H         LINE#         975
  C:0366H         LINE#         976
  C:037BH         LINE#         977
  C:037EH         LINE#         978
  C:0393H         LINE#         979
  C:0396H         LINE#         980
  C:0399H         LINE#         981
  C:039CH         LINE#         982
  C:039FH         LINE#         986
  C:03A4H         LINE#         987
  C:03A7H         LINE#         988
  C:03AAH         LINE#         989
  C:03AAH         LINE#         990
  C:03ADH         LINE#         992
  C:03ADH         LINE#         993
  C:03C5H         LINE#         994
  C:03C8H         LINE#         995
  C:03C8H         LINE#         996
  C:03CBH         LINE#         997
  C:03CBH         LINE#         998
  C:03D8H         LINE#         999
  C:03D8H         LINE#         1000
  C:03DBH         LINE#         1001
  C:03DEH         LINE#         1003
  C:03EEH         LINE#         1004
  C:03F1H         LINE#         1005
  C:03F1H         LINE#         1006
  C:04ADH         LINE#         1007
  C:04ADH         LINE#         1008
  C:04ADH         LINE#         1009
  C:04B9H         LINE#         1010
  C:04BCH         LINE#         1011
  C:04BFH         LINE#         1012
  C:04BFH         LINE#         1013
  C:04C8H         LINE#         1014
  C:04CBH         LINE#         1015
  C:04CEH         LINE#         1016
  C:04CEH         LINE#         1017
  C:04D7H         LINE#         1018
  C:04DAH         LINE#         1019
  C:04DDH         LINE#         1020
  C:04DDH         LINE#         1021
BL51 BANKED LINKER/LOCATER V6.22                                                      03/10/2016  16:30:11  PAGE 49


  C:04EAH         LINE#         1022
  C:04EDH         LINE#         1023
  C:04F0H         LINE#         1024
  C:04F0H         LINE#         1025
  C:04FCH         LINE#         1026
  C:04FFH         LINE#         1027
  C:0502H         LINE#         1028
  C:0502H         LINE#         1029
  C:050EH         LINE#         1030
  C:0511H         LINE#         1031
  C:0514H         LINE#         1032
  C:0514H         LINE#         1033
  C:0520H         LINE#         1034
  C:0523H         LINE#         1035
  C:0526H         LINE#         1036
  C:0526H         LINE#         1037
  C:0532H         LINE#         1038
  C:0535H         LINE#         1039
  C:0538H         LINE#         1040
  C:0538H         LINE#         1041
  C:0544H         LINE#         1042
  C:0547H         LINE#         1043
  C:054AH         LINE#         1044
  C:054AH         LINE#         1045
  C:0556H         LINE#         1046
  C:0559H         LINE#         1047
  C:055CH         LINE#         1048
  C:055CH         LINE#         1049
  C:0568H         LINE#         1050
  C:056BH         LINE#         1051
  C:056EH         LINE#         1052
  C:056EH         LINE#         1053
  C:057AH         LINE#         1054
  C:057DH         LINE#         1055
  C:0580H         LINE#         1056
  C:0580H         LINE#         1057
  C:058CH         LINE#         1058
  C:058FH         LINE#         1059
  C:0592H         LINE#         1060
  C:0592H         LINE#         1061
  C:059EH         LINE#         1062
  C:05A1H         LINE#         1063
  C:05A4H         LINE#         1064
  C:05A4H         LINE#         1065
  C:05B0H         LINE#         1066
  C:05B3H         LINE#         1067
  C:05B6H         LINE#         1068
  C:05B6H         LINE#         1069
  C:05C2H         LINE#         1070
  C:05C5H         LINE#         1071
  C:05C8H         LINE#         1072
  C:05C8H         LINE#         1073
  C:05D4H         LINE#         1074
  C:05D7H         LINE#         1075
  C:05DAH         LINE#         1076
  C:05DAH         LINE#         1077
  C:05E6H         LINE#         1078
BL51 BANKED LINKER/LOCATER V6.22                                                      03/10/2016  16:30:11  PAGE 50


  C:05E9H         LINE#         1079
  C:05ECH         LINE#         1080
  C:05ECH         LINE#         1081
  C:05F8H         LINE#         1082
  C:05FBH         LINE#         1083
  C:05FEH         LINE#         1084
  C:05FEH         LINE#         1085
  C:060AH         LINE#         1086
  C:060DH         LINE#         1087
  C:0610H         LINE#         1088
  C:0610H         LINE#         1089
  C:061CH         LINE#         1090
  C:061FH         LINE#         1091
  C:0622H         LINE#         1092
  C:0622H         LINE#         1093
  C:062EH         LINE#         1094
  C:0631H         LINE#         1095
  C:0634H         LINE#         1096
  C:0634H         LINE#         1097
  C:0640H         LINE#         1098
  C:0643H         LINE#         1099
  C:0646H         LINE#         1100
  C:0646H         LINE#         1101
  C:0652H         LINE#         1102
  C:0655H         LINE#         1103
  C:0658H         LINE#         1104
  C:0658H         LINE#         1105
  C:0664H         LINE#         1106
  C:0667H         LINE#         1107
  C:066AH         LINE#         1108
  C:066AH         LINE#         1109
  C:0676H         LINE#         1110
  C:0679H         LINE#         1111
  C:067CH         LINE#         1112
  C:067CH         LINE#         1113
  C:0688H         LINE#         1114
  C:068BH         LINE#         1115
  C:068EH         LINE#         1116
  C:068EH         LINE#         1117
  C:069AH         LINE#         1118
  C:069DH         LINE#         1119
  C:06A0H         LINE#         1120
  C:06A0H         LINE#         1121
  C:06ACH         LINE#         1122
  C:06AFH         LINE#         1123
  C:06B2H         LINE#         1124
  C:06B2H         LINE#         1125
  C:06BEH         LINE#         1126
  C:06C1H         LINE#         1127
  C:06C4H         LINE#         1128
  C:06C4H         LINE#         1129
  C:06D0H         LINE#         1130
  C:06D3H         LINE#         1131
  C:06D6H         LINE#         1132
  C:06D6H         LINE#         1133
  C:06E2H         LINE#         1134
  C:06E5H         LINE#         1135
BL51 BANKED LINKER/LOCATER V6.22                                                      03/10/2016  16:30:11  PAGE 51


  C:06E8H         LINE#         1136
  C:06E8H         LINE#         1137
  C:06F4H         LINE#         1138
  C:06F7H         LINE#         1139
  C:06FAH         LINE#         1140
  C:06FAH         LINE#         1141
  C:0706H         LINE#         1142
  C:0709H         LINE#         1143
  C:070CH         LINE#         1144
  C:070CH         LINE#         1145
  C:0718H         LINE#         1146
  C:071BH         LINE#         1147
  C:071EH         LINE#         1148
  C:071EH         LINE#         1149
  C:072AH         LINE#         1150
  C:072DH         LINE#         1151
  C:0730H         LINE#         1152
  C:0730H         LINE#         1153
  C:073CH         LINE#         1154
  C:073FH         LINE#         1155
  C:0742H         LINE#         1156
  C:0742H         LINE#         1157
  C:074DH         LINE#         1158
  C:0753H         LINE#         1159
  C:0753H         LINE#         1160
  C:0760H         LINE#         1161
  C:0766H         LINE#         1162
  C:0766H         LINE#         1163
  C:0769H         LINE#         1164
  C:0769H         LINE#         1165
  C:0775H         LINE#         1166
  C:077BH         LINE#         1167
  C:077BH         LINE#         1168
  C:077EH         LINE#         1169
  C:077EH         LINE#         1170
  C:0789H         LINE#         1171
  C:078FH         LINE#         1172
  C:078FH         LINE#         1173
  C:0792H         LINE#         1174
  C:0792H         LINE#         1175
  C:079DH         LINE#         1176
  C:07A3H         LINE#         1177
  C:07A3H         LINE#         1178
  C:07A6H         LINE#         1179
  C:07A6H         LINE#         1180
  C:07B1H         LINE#         1181
  C:07B7H         LINE#         1182
  C:07B7H         LINE#         1183
  C:07BAH         LINE#         1184
  C:07BAH         LINE#         1197
  C:07C6H         LINE#         1198
  C:07CCH         LINE#         1200
  C:07CCH         LINE#         1201
  C:07CFH         LINE#         1202
  C:07CFH         LINE#         1203
  C:07D9H         LINE#         1204
  C:07DEH         LINE#         1205
BL51 BANKED LINKER/LOCATER V6.22                                                      03/10/2016  16:30:11  PAGE 52


  C:07DEH         LINE#         1206
  C:07E1H         LINE#         1207
  C:07E1H         LINE#         1208
  C:07ECH         LINE#         1209
  C:07F2H         LINE#         1210
  C:07F2H         LINE#         1211
  C:07F5H         LINE#         1212
  C:07F5H         LINE#         1213
  C:0800H         LINE#         1214
  C:0806H         LINE#         1215
  C:0806H         LINE#         1216
  C:0809H         LINE#         1217
  C:0809H         LINE#         1225
  C:0814H         LINE#         1226
  C:081AH         LINE#         1229
  C:081AH         LINE#         1230
  C:081DH         LINE#         1231
  C:081DH         LINE#         1232
  C:0829H         LINE#         1233
  C:082CH         LINE#         1234
  C:082EH         LINE#         1235
  C:082EH         LINE#         1236
  C:083AH         LINE#         1237
  C:083DH         LINE#         1238
  C:083FH         LINE#         1239
  C:083FH         LINE#         1240
  C:084BH         LINE#         1241
  C:084EH         LINE#         1242
  C:0850H         LINE#         1243
  C:0850H         LINE#         1244
  C:085CH         LINE#         1245
  C:0862H         LINE#         1246
  C:0862H         LINE#         1247
  C:0864H         LINE#         1248
  C:0864H         LINE#         1249
  C:086FH         LINE#         1250
  C:0875H         LINE#         1251
  C:0877H         LINE#         1252
  C:0877H         LINE#         1253
  C:087AH         LINE#         1254
  C:087CH         LINE#         1255
  C:087CH         LINE#         1256
  C:0888H         LINE#         1257
  C:088EH         LINE#         1258
  C:088EH         LINE#         1259
  C:0890H         LINE#         1260
  C:0890H         LINE#         1261
  C:089BH         LINE#         1262
  C:08A1H         LINE#         1263
  C:08A1H         LINE#         1264
  C:08A3H         LINE#         1265
  C:08A3H         LINE#         1266
  C:08AEH         LINE#         1267
  C:08B4H         LINE#         1268
  C:08B4H         LINE#         1269
  C:08B6H         LINE#         1270
  C:08B6H         LINE#         1271
BL51 BANKED LINKER/LOCATER V6.22                                                      03/10/2016  16:30:11  PAGE 53


  C:08C1H         LINE#         1272
  C:08C7H         LINE#         1273
  C:08C7H         LINE#         1274
  C:08C9H         LINE#         1275
  C:08C9H         LINE#         1276
  C:08D4H         LINE#         1277
  C:08DAH         LINE#         1278
  C:08DDH         LINE#         1279
  C:08DDH         LINE#         1281
  C:08DDH         LINE#         1282
  C:08DDH         LINE#         1283
  C:08F0H         LINE#         1284
  C:08F0H         LINE#         1285
  C:09ACH         LINE#         1286
  C:09ACH         LINE#         1287
  C:09ACH         LINE#         1288
  C:09B8H         LINE#         1289
  C:09BBH         LINE#         1290
  C:09BEH         LINE#         1291
  C:09BEH         LINE#         1292
  C:09CBH         LINE#         1293
  C:09CEH         LINE#         1294
  C:09D1H         LINE#         1295
  C:09D1H         LINE#         1296
  C:09DEH         LINE#         1297
  C:09E1H         LINE#         1298
  C:09E4H         LINE#         1299
  C:09E4H         LINE#         1300
  C:09F1H         LINE#         1301
  C:09F4H         LINE#         1302
  C:09F7H         LINE#         1303
  C:09F7H         LINE#         1304
  C:0A03H         LINE#         1305
  C:0A06H         LINE#         1306
  C:0A09H         LINE#         1307
  C:0A09H         LINE#         1308
  C:0A15H         LINE#         1309
  C:0A18H         LINE#         1310
  C:0A1BH         LINE#         1311
  C:0A1BH         LINE#         1312
  C:0A24H         LINE#         1313
  C:0A27H         LINE#         1314
  C:0A2AH         LINE#         1315
  C:0A2AH         LINE#         1316
  C:0A33H         LINE#         1317
  C:0A36H         LINE#         1318
  C:0A39H         LINE#         1319
  C:0A39H         LINE#         1320
  C:0A42H         LINE#         1321
  C:0A45H         LINE#         1322
  C:0A48H         LINE#         1323
  C:0A48H         LINE#         1324
  C:0A51H         LINE#         1325
  C:0A54H         LINE#         1326
  C:0A57H         LINE#         1327
  C:0A57H         LINE#         1328
  C:0A60H         LINE#         1329
BL51 BANKED LINKER/LOCATER V6.22                                                      03/10/2016  16:30:11  PAGE 54


  C:0A63H         LINE#         1330
  C:0A66H         LINE#         1331
  C:0A66H         LINE#         1332
  C:0A6FH         LINE#         1333
  C:0A72H         LINE#         1334
  C:0A75H         LINE#         1335
  C:0A75H         LINE#         1336
  C:0A7EH         LINE#         1337
  C:0A81H         LINE#         1338
  C:0A84H         LINE#         1339
  C:0A84H         LINE#         1340
  C:0A8DH         LINE#         1341
  C:0A90H         LINE#         1342
  C:0A93H         LINE#         1343
  C:0A93H         LINE#         1344
  C:0A9CH         LINE#         1345
  C:0A9FH         LINE#         1346
  C:0AA2H         LINE#         1347
  C:0AA2H         LINE#         1348
  C:0AABH         LINE#         1349
  C:0AAEH         LINE#         1350
  C:0AB1H         LINE#         1351
  C:0AB1H         LINE#         1352
  C:0ABAH         LINE#         1353
  C:0ABDH         LINE#         1354
  C:0AC0H         LINE#         1355
  C:0AC0H         LINE#         1356
  C:0AC9H         LINE#         1357
  C:0ACCH         LINE#         1358
  C:0ACFH         LINE#         1359
  C:0ACFH         LINE#         1360
  C:0AD8H         LINE#         1361
  C:0ADBH         LINE#         1362
  C:0ADEH         LINE#         1363
  C:0ADEH         LINE#         1364
  C:0AE7H         LINE#         1365
  C:0AEAH         LINE#         1366
  C:0AEDH         LINE#         1367
  C:0AEDH         LINE#         1368
  C:0AF6H         LINE#         1369
  C:0AF9H         LINE#         1370
  C:0AFCH         LINE#         1371
  C:0AFCH         LINE#         1372
  C:0B05H         LINE#         1373
  C:0B08H         LINE#         1374
  C:0B0BH         LINE#         1375
  C:0B0BH         LINE#         1376
  C:0B14H         LINE#         1377
  C:0B17H         LINE#         1378
  C:0B1AH         LINE#         1379
  C:0B1AH         LINE#         1380
  C:0B23H         LINE#         1381
  C:0B26H         LINE#         1382
  C:0B29H         LINE#         1383
  C:0B29H         LINE#         1384
  C:0B32H         LINE#         1385
  C:0B35H         LINE#         1386
BL51 BANKED LINKER/LOCATER V6.22                                                      03/10/2016  16:30:11  PAGE 55


  C:0B38H         LINE#         1387
  C:0B38H         LINE#         1388
  C:0B41H         LINE#         1389
  C:0B44H         LINE#         1390
  C:0B47H         LINE#         1391
  C:0B47H         LINE#         1392
  C:0B4FH         LINE#         1393
  C:0B52H         LINE#         1394
  C:0B55H         LINE#         1395
  C:0B55H         LINE#         1396
  C:0B5EH         LINE#         1397
  C:0B61H         LINE#         1398
  C:0B64H         LINE#         1399
  C:0B64H         LINE#         1400
  C:0B6DH         LINE#         1401
  C:0B70H         LINE#         1402
  C:0B73H         LINE#         1403
  C:0B73H         LINE#         1404
  C:0B7BH         LINE#         1405
  C:0B7EH         LINE#         1406
  C:0B81H         LINE#         1407
  C:0B81H         LINE#         1408
  C:0B89H         LINE#         1409
  C:0B8CH         LINE#         1410
  C:0B8FH         LINE#         1411
  C:0B8FH         LINE#         1412
  C:0B97H         LINE#         1413
  C:0B9AH         LINE#         1414
  C:0B9DH         LINE#         1415
  C:0B9DH         LINE#         1416
  C:0BA5H         LINE#         1417
  C:0BA8H         LINE#         1418
  C:0BABH         LINE#         1419
  C:0BABH         LINE#         1420
  C:0BB3H         LINE#         1421
  C:0BB6H         LINE#         1422
  C:0BB9H         LINE#         1423
  C:0BB9H         LINE#         1424
  C:0BC5H         LINE#         1425
  C:0BC8H         LINE#         1426
  C:0BCBH         LINE#         1427
  C:0BCBH         LINE#         1428
  C:0BD3H         LINE#         1429
  C:0BD6H         LINE#         1430
  C:0BD9H         LINE#         1431
  C:0BD9H         LINE#         1432
  C:0BE1H         LINE#         1433
  C:0BE4H         LINE#         1434
  C:0BE7H         LINE#         1435
  C:0BE7H         LINE#         1436
  C:0BF3H         LINE#         1437
  C:0BF6H         LINE#         1438
  C:0BF9H         LINE#         1439
  C:0BF9H         LINE#         1440
  C:0C06H         LINE#         1441
  C:0C0CH         LINE#         1442
  C:0C0CH         LINE#         1443
BL51 BANKED LINKER/LOCATER V6.22                                                      03/10/2016  16:30:11  PAGE 56


  C:0C0FH         LINE#         1444
  C:0C0FH         LINE#         1445
  C:0C1BH         LINE#         1446
  C:0C21H         LINE#         1447
  C:0C21H         LINE#         1448
  C:0C24H         LINE#         1449
  C:0C24H         LINE#         1450
  C:0C2FH         LINE#         1451
  C:0C35H         LINE#         1452
  C:0C35H         LINE#         1453
  C:0C38H         LINE#         1454
  C:0C38H         LINE#         1455
  C:0C43H         LINE#         1456
  C:0C49H         LINE#         1457
  C:0C49H         LINE#         1458
  C:0C4CH         LINE#         1459
  C:0C4CH         LINE#         1460
  C:0C57H         LINE#         1461
  C:0C5DH         LINE#         1462
  C:0C5DH         LINE#         1463
  C:0C60H         LINE#         1464
  C:0C60H         LINE#         1476
  C:0C6CH         LINE#         1477
  C:0C72H         LINE#         1479
  C:0C72H         LINE#         1480
  C:0C75H         LINE#         1481
  C:0C75H         LINE#         1482
  C:0C7FH         LINE#         1483
  C:0C84H         LINE#         1484
  C:0C84H         LINE#         1485
  C:0C87H         LINE#         1486
  C:0C87H         LINE#         1487
  C:0C92H         LINE#         1488
  C:0C98H         LINE#         1489
  C:0C98H         LINE#         1490
  C:0C9BH         LINE#         1491
  C:0C9BH         LINE#         1492
  C:0CA6H         LINE#         1493
  C:0CACH         LINE#         1494
  C:0CACH         LINE#         1495
  C:0CAFH         LINE#         1496
  C:0CAFH         LINE#         1503
  C:0CBAH         LINE#         1504
  C:0CC0H         LINE#         1506
  C:0CC0H         LINE#         1507
  C:0CC3H         LINE#         1508
  C:0CC3H         LINE#         1509
  C:0CCBH         LINE#         1510
  C:0CCEH         LINE#         1511
  C:0CD0H         LINE#         1512
  C:0CD0H         LINE#         1513
  C:0CD8H         LINE#         1514
  C:0CDBH         LINE#         1515
  C:0CDDH         LINE#         1516
  C:0CDDH         LINE#         1517
  C:0CE9H         LINE#         1518
  C:0CECH         LINE#         1519
BL51 BANKED LINKER/LOCATER V6.22                                                      03/10/2016  16:30:11  PAGE 57


  C:0CEEH         LINE#         1520
  C:0CEEH         LINE#         1521
  C:0CFAH         LINE#         1522
  C:0D00H         LINE#         1523
  C:0D00H         LINE#         1524
  C:0D02H         LINE#         1525
  C:0D02H         LINE#         1526
  C:0D0DH         LINE#         1527
  C:0D13H         LINE#         1528
  C:0D15H         LINE#         1529
  C:0D15H         LINE#         1530
  C:0D18H         LINE#         1531
  C:0D1AH         LINE#         1532
  C:0D1AH         LINE#         1533
  C:0D26H         LINE#         1534
  C:0D2CH         LINE#         1535
  C:0D2CH         LINE#         1536
  C:0D2EH         LINE#         1537
  C:0D2EH         LINE#         1538
  C:0D39H         LINE#         1539
  C:0D3FH         LINE#         1540
  C:0D3FH         LINE#         1541
  C:0D41H         LINE#         1542
  C:0D41H         LINE#         1543
  C:0D4CH         LINE#         1544
  C:0D52H         LINE#         1545
  C:0D52H         LINE#         1546
  C:0D54H         LINE#         1547
  C:0D54H         LINE#         1548
  C:0D5FH         LINE#         1549
  C:0D65H         LINE#         1550
  C:0D65H         LINE#         1551
  C:0D67H         LINE#         1552
  C:0D67H         LINE#         1553
  C:0D72H         LINE#         1554
  C:0D78H         LINE#         1555
  C:0D7BH         LINE#         1556
  C:0D7BH         LINE#         1558
  C:0D7BH         LINE#         1559
  C:0D7BH         LINE#         1560
  C:0D96H         LINE#         1562
  C:0D96H         LINE#         1563
  C:0D96H         LINE#         1565
  C:0D96H         LINE#         1566
  C:0D98H         LINE#         1567
  C:0D9AH         LINE#         1568
  C:0D9AH         LINE#         1569
  C:0D9CH         LINE#         1570
  C:0D9EH         LINE#         1571
  C:0D9EH         LINE#         1572
  C:0DA0H         LINE#         1573
  C:0DA2H         LINE#         1574
  C:0DA2H         LINE#         1575
  C:0DA4H         LINE#         1576
  C:0DA6H         LINE#         1577
  C:0DA6H         LINE#         1578
  C:0DB5H         LINE#         1579
BL51 BANKED LINKER/LOCATER V6.22                                                      03/10/2016  16:30:11  PAGE 58


  C:0DB5H         LINE#         1580
  C:0DC1H         LINE#         1581
  C:0DC4H         LINE#         1583
  C:0DC4H         LINE#         1584
  C:0DCEH         LINE#         1585
  C:0DCEH         LINE#         1586
  C:0DCEH         LINE#         1587
  C:0DCEH         LINE#         1588
  C:0DD1H         LINE#         1589
  C:0DD1H         LINE#         1590
  C:0DD1H         LINE#         1592
  C:0DD1H         LINE#         1593
  C:0DD7H         LINE#         1594
  C:0DD7H         LINE#         1595
  C:0DD7H         LINE#         1596
  C:0DDAH         LINE#         1597
  C:0DDAH         LINE#         1598
  C:0DDCH         LINE#         1599
  C:0DDEH         LINE#         1600
  C:0DDEH         LINE#         1601
  C:0DE0H         LINE#         1602
  C:0DE2H         LINE#         1603
  C:0DE2H         LINE#         1604
  C:0DE4H         LINE#         1605
  C:0DE6H         LINE#         1606
  C:0DE6H         LINE#         1607
  C:0DF5H         LINE#         1608
  C:0DF5H         LINE#         1609
  C:0E01H         LINE#         1610
  C:0E03H         LINE#         1612
  C:0E03H         LINE#         1613
  C:0E0AH         LINE#         1614
  C:0E0AH         LINE#         1615
  C:0E0AH         LINE#         1616
  C:0E0AH         LINE#         1617
  C:0E0DH         LINE#         1618
  C:0E0DH         LINE#         1619
  C:0E0DH         LINE#         1621
  C:0E0DH         LINE#         1622
  C:0E0DH         LINE#         1623
  C:0E0FH         LINE#         1624
  C:0E11H         LINE#         1625
  C:0E11H         LINE#         1626
  C:0E13H         LINE#         1627
  C:0E15H         LINE#         1628
  C:0E15H         LINE#         1629
  C:0E1AH         LINE#         1630
  C:0E1DH         LINE#         1631
  C:0E1DH         LINE#         1632
  C:0E48H         LINE#         1633
  C:0E7AH         LINE#         1634
  C:0E7EH         LINE#         1635
  C:0E80H         LINE#         1636
  C:0E82H         LINE#         1637
  C:0E85H         LINE#         1638
  C:0E93H         LINE#         1639
  C:0EA1H         LINE#         1640
BL51 BANKED LINKER/LOCATER V6.22                                                      03/10/2016  16:30:11  PAGE 59


  C:0EAFH         LINE#         1641
  C:0EBDH         LINE#         1642
  C:0ECBH         LINE#         1643
  C:0ED9H         LINE#         1644
  C:0EDBH         LINE#         1645
  C:0EE0H         LINE#         1646
  C:0EE0H         LINE#         1647
  C:0EE0H         LINE#         1648
  C:0EE3H         LINE#         1649
  C:0EE3H         LINE#         1650
  C:0EE3H         LINE#         1652
  C:0EE3H         LINE#         1653
  C:0EE3H         LINE#         1654
  C:0EE6H         LINE#         1655
  C:0EF4H         LINE#         1656
  C:0EF4H         LINE#         1657
  C:0EF4H         LINE#         1658
  C:0EF7H         LINE#         1659
  C:0EF7H         LINE#         1660
  C:0F27H         LINE#         1661
  C:0F52H         LINE#         1662
  C:0F84H         LINE#         1663
  C:0F88H         LINE#         1664
  C:0F8AH         LINE#         1665
  C:0F8CH         LINE#         1666
  C:0F8FH         LINE#         1667
  C:0F9DH         LINE#         1668
  C:0FABH         LINE#         1669
  C:0FB9H         LINE#         1670
  C:0FC7H         LINE#         1671
  C:0FD5H         LINE#         1672
  C:0FE3H         LINE#         1673
  C:0FE5H         LINE#         1674
  C:0FEBH         LINE#         1675
  C:0FEBH         LINE#         1676
  C:0FEBH         LINE#         1677
  C:0FEEH         LINE#         1678
  C:0FEEH         LINE#         1679
  C:101EH         LINE#         1680
  C:1049H         LINE#         1681
  C:107BH         LINE#         1682
  C:107FH         LINE#         1683
  C:1081H         LINE#         1684
  C:1083H         LINE#         1685
  C:1086H         LINE#         1686
  C:1094H         LINE#         1687
  C:10A2H         LINE#         1688
  C:10B0H         LINE#         1689
  C:10BEH         LINE#         1690
  C:10CCH         LINE#         1691
  C:10DAH         LINE#         1692
  C:10DCH         LINE#         1693
  C:10E2H         LINE#         1694
  C:10E2H         LINE#         1695
  C:10E2H         LINE#         1696
  C:10E4H         LINE#         1697
  C:10E4H         LINE#         1698
BL51 BANKED LINKER/LOCATER V6.22                                                      03/10/2016  16:30:11  PAGE 60


  C:10EAH         LINE#         1699
  C:10EDH         LINE#         1700
  C:10F0H         LINE#         1701
  C:10F0H         LINE#         1703
  C:10F0H         LINE#         1704
  C:10F0H         LINE#         1706
  C:1118H         LINE#         1707
  -------         ENDPROC       KEYPROCESS
  -------         PROC          DELAY10MS
  -------         DO            
  D:0005H         SYMBOL        a
  D:0006H         SYMBOL        b
  D:0007H         SYMBOL        c
  -------         ENDDO         
  C:8507H         LINE#         1710
  C:8507H         LINE#         1711
  C:8507H         LINE#         1713
  C:8509H         LINE#         1714
  C:850BH         LINE#         1715
  C:8513H         LINE#         1716
  C:8514H         LINE#         1717
  -------         ENDPROC       DELAY10MS
  -------         PROC          _DELAYMULTI10MS
  D:0002H         SYMBOL        delay
  -------         DO            
  D:0004H         SYMBOL        a
  -------         ENDDO         
  C:8379H         LINE#         1718
  C:837DH         LINE#         1719
  C:837DH         LINE#         1721
  C:8386H         LINE#         1722
  C:838CH         LINE#         1723
  -------         ENDPROC       _DELAYMULTI10MS
  -------         PROC          RETURN_FUNC_INDEX
  -------         DO            
  D:0007H         SYMBOL        func_index_temp
  -------         ENDDO         
  C:8610H         LINE#         1724
  C:8610H         LINE#         1725
  C:8610H         LINE#         1726
  C:8610H         LINE#         1727
  C:8615H         LINE#         1728
  C:8615H         LINE#         1729
  -------         ENDPROC       RETURN_FUNC_INDEX
  -------         PROC          _SET_FUNC_INDEX
  D:0007H         SYMBOL        temp
  C:8616H         LINE#         1731
  C:8616H         LINE#         1732
  C:8616H         LINE#         1733
  C:861BH         LINE#         1734
  -------         ENDPROC       _SET_FUNC_INDEX
  -------         PROC          RETURN_TWO_MENU_F3_E1
  -------         DO            
  D:0007H         SYMBOL        temp
  -------         ENDDO         
  C:861CH         LINE#         1736
  C:861CH         LINE#         1737
BL51 BANKED LINKER/LOCATER V6.22                                                      03/10/2016  16:30:11  PAGE 61


  C:861CH         LINE#         1738
  C:861CH         LINE#         1739
  C:8621H         LINE#         1740
  C:8621H         LINE#         1741
  -------         ENDPROC       RETURN_TWO_MENU_F3_E1
  -------         PROC          RETURN_TWO_MENU_F3_E2
  -------         DO            
  D:0007H         SYMBOL        temp
  -------         ENDDO         
  C:8622H         LINE#         1743
  C:8622H         LINE#         1744
  C:8622H         LINE#         1745
  C:8622H         LINE#         1746
  C:8627H         LINE#         1747
  C:8627H         LINE#         1748
  -------         ENDPROC       RETURN_TWO_MENU_F3_E2
  -------         PROC          RETURN_TWO_MENU_F4_E1
  -------         DO            
  D:0007H         SYMBOL        temp
  -------         ENDDO         
  C:8628H         LINE#         1750
  C:8628H         LINE#         1751
  C:8628H         LINE#         1752
  C:8628H         LINE#         1753
  C:862DH         LINE#         1754
  C:862DH         LINE#         1755
  -------         ENDPROC       RETURN_TWO_MENU_F4_E1
  -------         PROC          RETURN_TWO_MENU_F5_E1
  -------         DO            
  D:0007H         SYMBOL        temp
  -------         ENDDO         
  C:862EH         LINE#         1757
  C:862EH         LINE#         1758
  C:862EH         LINE#         1759
  C:862EH         LINE#         1760
  C:8633H         LINE#         1761
  C:8633H         LINE#         1762
  -------         ENDPROC       RETURN_TWO_MENU_F5_E1
  -------         PROC          RETURN_TWO_MENU_F6_E1
  -------         DO            
  D:0007H         SYMBOL        temp
  -------         ENDDO         
  C:8634H         LINE#         1764
  C:8634H         LINE#         1765
  C:8634H         LINE#         1766
  C:8634H         LINE#         1767
  C:8639H         LINE#         1768
  C:8639H         LINE#         1769
  -------         ENDPROC       RETURN_TWO_MENU_F6_E1
  -------         PROC          RETURN_TWO_MENU_F6_E2
  -------         DO            
  D:0007H         SYMBOL        temp
  -------         ENDDO         
  C:863AH         LINE#         1771
  C:863AH         LINE#         1772
  C:863AH         LINE#         1773
  C:863AH         LINE#         1774
BL51 BANKED LINKER/LOCATER V6.22                                                      03/10/2016  16:30:11  PAGE 62


  C:863FH         LINE#         1775
  C:863FH         LINE#         1776
  -------         ENDPROC       RETURN_TWO_MENU_F6_E2
  -------         PROC          RETURN_TWO_MENU_F6_E3
  -------         DO            
  D:0007H         SYMBOL        temp
  -------         ENDDO         
  C:8640H         LINE#         1778
  C:8640H         LINE#         1779
  C:8640H         LINE#         1780
  C:8640H         LINE#         1781
  C:8645H         LINE#         1782
  C:8645H         LINE#         1783
  -------         ENDPROC       RETURN_TWO_MENU_F6_E3
  -------         PROC          RETURN_TWO_MENU_F6_E4
  -------         DO            
  D:0007H         SYMBOL        temp
  -------         ENDDO         
  C:8646H         LINE#         1785
  C:8646H         LINE#         1786
  C:8646H         LINE#         1787
  C:8646H         LINE#         1788
  C:864BH         LINE#         1789
  C:864BH         LINE#         1790
  -------         ENDPROC       RETURN_TWO_MENU_F6_E4
  -------         PROC          RETURN_TWO_MENU_F6_E5
  -------         DO            
  D:0007H         SYMBOL        temp
  -------         ENDDO         
  C:864CH         LINE#         1792
  C:864CH         LINE#         1793
  C:864CH         LINE#         1794
  C:864CH         LINE#         1795
  C:8651H         LINE#         1796
  C:8651H         LINE#         1797
  -------         ENDPROC       RETURN_TWO_MENU_F6_E5
  -------         PROC          RETURN_TWO_MENU_F6_E6
  -------         DO            
  D:0007H         SYMBOL        temp
  -------         ENDDO         
  C:8652H         LINE#         1798
  C:8652H         LINE#         1799
  C:8652H         LINE#         1800
  C:8652H         LINE#         1801
  C:8657H         LINE#         1802
  C:8657H         LINE#         1803
  -------         ENDPROC       RETURN_TWO_MENU_F6_E6
  -------         PROC          RETURN_TWO_MENU_F6_E7
  -------         DO            
  D:0007H         SYMBOL        temp
  -------         ENDDO         
  C:8658H         LINE#         1805
  C:8658H         LINE#         1806
  C:8658H         LINE#         1807
  C:8658H         LINE#         1808
  C:865DH         LINE#         1809
  C:865DH         LINE#         1810
BL51 BANKED LINKER/LOCATER V6.22                                                      03/10/2016  16:30:11  PAGE 63


  -------         ENDPROC       RETURN_TWO_MENU_F6_E7
  -------         PROC          RETURN_TWO_MENU_F6_E8
  -------         DO            
  D:0007H         SYMBOL        temp
  -------         ENDDO         
  C:865EH         LINE#         1812
  C:865EH         LINE#         1813
  C:865EH         LINE#         1814
  C:865EH         LINE#         1815
  C:8663H         LINE#         1816
  C:8663H         LINE#         1817
  -------         ENDPROC       RETURN_TWO_MENU_F6_E8
  -------         PROC          RETURN_TWO_MENU_F7_E1
  -------         DO            
  D:0007H         SYMBOL        temp
  -------         ENDDO         
  C:8664H         LINE#         1819
  C:8664H         LINE#         1820
  C:8664H         LINE#         1821
  C:8664H         LINE#         1822
  C:8669H         LINE#         1823
  C:8669H         LINE#         1824
  -------         ENDPROC       RETURN_TWO_MENU_F7_E1
  -------         PROC          RETURN_TWO_MENU_F7_E2
  -------         DO            
  D:0007H         SYMBOL        temp
  -------         ENDDO         
  C:866AH         LINE#         1826
  C:866AH         LINE#         1827
  C:866AH         LINE#         1828
  C:866AH         LINE#         1829
  C:866FH         LINE#         1830
  C:866FH         LINE#         1831
  -------         ENDPROC       RETURN_TWO_MENU_F7_E2
  -------         PROC          RETURN_TWO_MENU_F7_E3
  -------         DO            
  D:0007H         SYMBOL        temp
  -------         ENDDO         
  C:8670H         LINE#         1833
  C:8670H         LINE#         1834
  C:8670H         LINE#         1835
  C:8670H         LINE#         1836
  C:8675H         LINE#         1837
  C:8675H         LINE#         1838
  -------         ENDPROC       RETURN_TWO_MENU_F7_E3
  -------         PROC          RETURN_TWO_MENU_F7_E4
  -------         DO            
  D:0007H         SYMBOL        temp
  -------         ENDDO         
  C:8676H         LINE#         1840
  C:8676H         LINE#         1841
  C:8676H         LINE#         1842
  C:8676H         LINE#         1843
  C:867BH         LINE#         1844
  C:867BH         LINE#         1845
  -------         ENDPROC       RETURN_TWO_MENU_F7_E4
  -------         PROC          L?0898
BL51 BANKED LINKER/LOCATER V6.22                                                      03/10/2016  16:30:11  PAGE 64


  -------         ENDPROC       L?0898
  -------         PROC          RETURN_TWO_MENU_F8_E1
  -------         DO            
  D:0007H         SYMBOL        temp
  -------         ENDDO         
  C:83D6H         LINE#         1847
  C:83D6H         LINE#         1848
  C:83D6H         LINE#         1849
  C:83D6H         LINE#         1850
  C:83DBH         LINE#         1851
  C:83DBH         LINE#         1852
  -------         ENDPROC       RETURN_TWO_MENU_F8_E1
  -------         PROC          RETURN_TWO_MENU_F8_E2
  -------         DO            
  D:0007H         SYMBOL        temp
  -------         ENDDO         
  C:867CH         LINE#         1854
  C:867CH         LINE#         1855
  C:867CH         LINE#         1856
  C:867CH         LINE#         1857
  C:8681H         LINE#         1858
  C:8681H         LINE#         1859
  -------         ENDPROC       RETURN_TWO_MENU_F8_E2
  -------         PROC          RETURN_SOUND_TABLE
  -------         DO            
  D:0007H         SYMBOL        temp
  -------         ENDDO         
  C:8682H         LINE#         1861
  C:8682H         LINE#         1862
  C:8682H         LINE#         1863
  C:8682H         LINE#         1864
  C:8687H         LINE#         1865
  C:8687H         LINE#         1866
  -------         ENDPROC       RETURN_SOUND_TABLE
  -------         PROC          _SET_SOUND_TABLE
  D:0007H         SYMBOL        temp
  C:8688H         LINE#         1868
  C:8688H         LINE#         1869
  C:8688H         LINE#         1870
  C:868DH         LINE#         1871
  -------         ENDPROC       _SET_SOUND_TABLE
  -------         PROC          L?0897
  -------         ENDPROC       L?0897
  -------         PROC          RETURN_TWO_MENU_FC_E1
  -------         DO            
  D:0007H         SYMBOL        temp
  -------         ENDDO         
  C:83E9H         LINE#         1873
  C:83E9H         LINE#         1874
  C:83E9H         LINE#         1875
  C:83E9H         LINE#         1876
  C:83EEH         LINE#         1877
  C:83EEH         LINE#         1878
  -------         ENDPROC       RETURN_TWO_MENU_FC_E1
  -------         PROC          L?0896
  -------         ENDPROC       L?0896
  -------         PROC          RETURN_TWO_MENU_FB_E1
BL51 BANKED LINKER/LOCATER V6.22                                                      03/10/2016  16:30:11  PAGE 65


  -------         DO            
  D:0007H         SYMBOL        temp
  -------         ENDDO         
  C:83FCH         LINE#         1880
  C:83FCH         LINE#         1881
  C:83FCH         LINE#         1882
  C:83FCH         LINE#         1883
  C:8401H         LINE#         1884
  C:8401H         LINE#         1885
  -------         ENDPROC       RETURN_TWO_MENU_FB_E1
  -------         PROC          ENV_LOAD
  C:698AH         LINE#         1887
  C:698AH         LINE#         1888
  C:698AH         LINE#         1890
  C:6992H         LINE#         1891
  C:699AH         LINE#         1892
  C:69A2H         LINE#         1893
  C:69AAH         LINE#         1894
  C:69B2H         LINE#         1895
  C:69BAH         LINE#         1896
  C:69C2H         LINE#         1897
  C:69CAH         LINE#         1898
  C:69D2H         LINE#         1899
  C:69DAH         LINE#         1900
  C:69E2H         LINE#         1901
  C:69EAH         LINE#         1902
  C:69F2H         LINE#         1903
  C:69FAH         LINE#         1904
  C:6A02H         LINE#         1905
  C:6A0AH         LINE#         1907
  C:6A1FH         LINE#         1908
  -------         ENDPROC       ENV_LOAD
  -------         PROC          ENV_INIT
  C:4947H         LINE#         1911
  C:4947H         LINE#         1912
  C:4947H         LINE#         1913
  C:495CH         LINE#         1914
  C:495FH         LINE#         1915
  C:4974H         LINE#         1916
  C:4977H         LINE#         1917
  C:498CH         LINE#         1918
  C:498FH         LINE#         1920
  C:4998H         LINE#         1921
  C:49A0H         LINE#         1922
  C:49A8H         LINE#         1923
  C:49B0H         LINE#         1924
  C:49B8H         LINE#         1925
  C:49C0H         LINE#         1926
  C:49C8H         LINE#         1927
  C:49D0H         LINE#         1928
  C:49D8H         LINE#         1929
  C:49E0H         LINE#         1930
  C:49E8H         LINE#         1931
  C:49F0H         LINE#         1932
  C:49F8H         LINE#         1933
  C:4A00H         LINE#         1934
  C:4A08H         LINE#         1935
BL51 BANKED LINKER/LOCATER V6.22                                                      03/10/2016  16:30:11  PAGE 66


  C:4A10H         LINE#         1937
  C:4A16H         LINE#         1938
  C:4A16H         LINE#         1939
  C:4A1CH         LINE#         1940
  C:4A1CH         LINE#         1941
  C:4A25H         LINE#         1942
  C:4A25H         LINE#         1943
  C:4A2BH         LINE#         1944
  C:4A2BH         LINE#         1945
  C:4A34H         LINE#         1946
  C:4A34H         LINE#         1947
  C:4A3AH         LINE#         1948
  C:4A3AH         LINE#         1949
  C:4A43H         LINE#         1950
  C:4A43H         LINE#         1951
  C:4A49H         LINE#         1952
  C:4A49H         LINE#         1953
  C:4A52H         LINE#         1954
  C:4A52H         LINE#         1955
  C:4A57H         LINE#         1956
  C:4A57H         LINE#         1970
  C:4A60H         LINE#         1971
  C:4A60H         LINE#         1972
  C:4A65H         LINE#         1973
  C:4A65H         LINE#         1974
  C:4A6EH         LINE#         1975
  C:4A6EH         LINE#         1976
  C:4A74H         LINE#         1977
  C:4A74H         LINE#         1978
  C:4A7DH         LINE#         1979
  C:4A7DH         LINE#         1980
  C:4A83H         LINE#         1981
  C:4A83H         LINE#         1982
  C:4A8CH         LINE#         1983
  C:4A8CH         LINE#         1984
  C:4A91H         LINE#         1985
  C:4A91H         LINE#         1986
  C:4A9AH         LINE#         1987
  C:4A9AH         LINE#         1988
  C:4A9FH         LINE#         1989
  C:4A9FH         LINE#         1990
  C:4AA8H         LINE#         1991
  C:4AA8H         LINE#         1992
  C:4AADH         LINE#         1993
  C:4AADH         LINE#         2002
  C:4AB6H         LINE#         2003
  C:4AB6H         LINE#         2004
  C:4ABCH         LINE#         2005
  C:4ABCH         LINE#         2008
  C:4AC5H         LINE#         2009
  C:4AC5H         LINE#         2010
  C:4ACBH         LINE#         2011
  C:4ACBH         LINE#         2012
  C:4AD4H         LINE#         2013
  C:4AD4H         LINE#         2014
  C:4ADAH         LINE#         2015
  C:4ADAH         LINE#         2016
BL51 BANKED LINKER/LOCATER V6.22                                                      03/10/2016  16:30:11  PAGE 67


  C:4AE3H         LINE#         2017
  C:4AE3H         LINE#         2018
  C:4AE9H         LINE#         2019
  C:4AE9H         LINE#         2020
  -------         ENDPROC       ENV_INIT
  -------         PROC          VAR_INIT
  C:7201H         LINE#         2022
  C:7201H         LINE#         2023
  C:7201H         LINE#         2024
  C:7207H         LINE#         2025
  C:720BH         LINE#         2027
  C:7210H         LINE#         2028
  C:7214H         LINE#         2030
  C:7218H         LINE#         2031
  C:721DH         LINE#         2032
  C:7222H         LINE#         2033
  C:7228H         LINE#         2034
  C:722EH         LINE#         2035
  C:7232H         LINE#         2036
  C:7235H         LINE#         2037
  C:7237H         LINE#         2039
  C:723DH         LINE#         2040
  C:7242H         LINE#         2041
  C:7246H         LINE#         2042
  C:724AH         LINE#         2044
  C:7250H         LINE#         2046
  C:7255H         LINE#         2049
  -------         ENDPROC       VAR_INIT
  -------         PROC          KEY_INIT
  -------         DO            
  D:0007H         SYMBOL        i
  -------         ENDDO         
  C:774BH         LINE#         2051
  C:774BH         LINE#         2052
  C:774BH         LINE#         2054
  C:774BH         LINE#         2055
  C:774BH         LINE#         2056
  C:7756H         LINE#         2057
  C:7756H         LINE#         2059
  C:775CH         LINE#         2060
  C:775FH         LINE#         2061
  C:7763H         LINE#         2062
  C:7767H         LINE#         2063
  C:776BH         LINE#         2064
  C:776EH         LINE#         2065
  C:7770H         LINE#         2066
  C:7774H         LINE#         2067
  C:7778H         LINE#         2068
  C:777AH         LINE#         2069
  C:777CH         LINE#         2070
  C:777EH         LINE#         2071
  C:7780H         LINE#         2072
  C:7782H         LINE#         2073
  C:7784H         LINE#         2074
  C:7786H         LINE#         2075
  -------         ENDPROC       KEY_INIT
  -------         PROC          _TRANSMIT_SET_DATA
BL51 BANKED LINKER/LOCATER V6.22                                                      03/10/2016  16:30:11  PAGE 68


  D:0003H         SYMBOL        temp
  C:734FH         LINE#         2080
  C:7351H         LINE#         2081
  C:7351H         LINE#         2082
  C:7358H         LINE#         2083
  C:7358H         LINE#         2084
  C:735DH         LINE#         2085
  C:7362H         LINE#         2086
  C:7364H         LINE#         2088
  C:7364H         LINE#         2089
  C:736BH         LINE#         2090
  C:736BH         LINE#         2091
  C:7372H         LINE#         2092
  C:7376H         LINE#         2093
  C:7376H         LINE#         2095
  C:7386H         LINE#         2096
  C:7386H         LINE#         2097
  C:7399H         LINE#         2098
  C:7399H         LINE#         2099
  C:7399H         LINE#         2100
  C:739CH         LINE#         2101
  -------         ENDPROC       _TRANSMIT_SET_DATA
  -------         ENDMOD        KEY

  -------         MODULE        TM1629
  C:0000H         SYMBOL        _ICE_DUMMY_
  C:8167H         PUBLIC        fun4
  C:8185H         PUBLIC        fun5
  D:0080H         PUBLIC        P0
  C:81A3H         PUBLIC        fun6
  D:0090H         PUBLIC        P1
  C:81C1H         PUBLIC        fun7
  C:8531H         PUBLIC        tm1629_display_buff_clear
  C:6A22H         PUBLIC        Transmit_show_wait_number
  D:00A0H         PUBLIC        P2
  C:81DFH         PUBLIC        fun8
  C:82B5H         PUBLIC        _send_command_2
  D:00B0H         PUBLIC        P3
  C:81FDH         PUBLIC        fun9
  C:82CEH         PUBLIC        _send_command_3
  D:00C0H         PUBLIC        P4
  D:00C8H         PUBLIC        P5
  D:00E8H         PUBLIC        P6
  D:00F8H         PUBLIC        P7
  C:8402H         PUBLIC        _Tm1629_delay
  C:6597H         PUBLIC        _Transmit_show_four_number
  C:7040H         PUBLIC        _Show_three_number
  C:5D62H         PUBLIC        CycleDown
  D:00A8H         PUBLIC        IE
  B:00A0H.7       PUBLIC        TM1629_DOUT
  X:0000H         PUBLIC        await_time_table
  D:00B8H         PUBLIC        IP
  X:0001H         PUBLIC        buf_display
  X:0031H         PUBLIC        CODE
  X:0046H         PUBLIC        multiple_key
  X:0056H         PUBLIC        display_ram
  C:7AB6H         PUBLIC        tm1629_clear
BL51 BANKED LINKER/LOCATER V6.22                                                      03/10/2016  16:30:11  PAGE 69


  C:5E5BH         PUBLIC        _decoder_temp_to_mcuram
  D:00D8H         PUBLIC        CCON
  C:7154H         PUBLIC        Transmit_show_two_number
  X:0376H         PUBLIC        Two_Menu_FE_status
  X:0377H         PUBLIC        Key
  C:821BH         PUBLIC        fun10
  C:79A5H         PUBLIC        fun20
  C:001EH         PUBLIC        fun11
  C:872EH         PUBLIC        fun30
  C:8414H         PUBLIC        fun21
  C:003EH         PUBLIC        fun12
  C:8756H         PUBLIC        fun40
  C:8581H         PUBLIC        fun31
  C:8426H         PUBLIC        fun22
  C:8724H         PUBLIC        fun13
  C:77FBH         PUBLIC        tm1629_await
  C:8046H         PUBLIC        fun50
  C:875BH         PUBLIC        fun41
  C:8589H         PUBLIC        fun32
  C:8438H         PUBLIC        fun23
  C:000EH         PUBLIC        fun14
  C:7101H         PUBLIC        _Show_four_number
  B:0080H.0       PUBLIC        TM1629_CLK
  C:7BCFH         PUBLIC        fun60
  C:8068H         PUBLIC        fun51
  C:8515H         PUBLIC        fun42
  C:8733H         PUBLIC        fun33
  C:844AH         PUBLIC        fun24
  C:7573H         PUBLIC        fun15
  X:037BH         PUBLIC        single_key
  X:038BH         PUBLIC        INIT_CODE
  C:3A44H         PUBLIC        _Cancel_funtion
  C:7CE7H         PUBLIC        fun70
  C:7F74H         PUBLIC        fun61
  C:808AH         PUBLIC        fun52
  C:8760H         PUBLIC        fun43
  C:8738H         PUBLIC        fun34
  C:845CH         PUBLIC        fun25
  C:7833H         PUBLIC        fun16
  B:0080H.1       PUBLIC        TM1629_DIO
  C:7E27H         PUBLIC        fun80
  C:7D0FH         PUBLIC        fun71
  C:7BF7H         PUBLIC        fun62
  C:8239H         PUBLIC        fun53
  C:8765H         PUBLIC        fun44
  C:873DH         PUBLIC        fun35
  C:846EH         PUBLIC        fun26
  C:786BH         PUBLIC        fun17
  X:0393H         PUBLIC        SHANGSHUO
  C:85D1H         PUBLIC        fun90
  C:8023H         PUBLIC        fun81
  C:7D37H         PUBLIC        fun72
  C:7C1FH         PUBLIC        fun63
  C:7B07H         PUBLIC        fun54
  C:876AH         PUBLIC        fun45
  C:8742H         PUBLIC        fun36
  C:8480H         PUBLIC        fun27
BL51 BANKED LINKER/LOCATER V6.22                                                      03/10/2016  16:30:11  PAGE 70


  C:7F0AH         PUBLIC        fun18
  D:0098H         PUBLIC        SCON
  C:85D9H         PUBLIC        fun91
  C:85A1H         PUBLIC        fun82
  C:7FDDH         PUBLIC        fun73
  C:7C47H         PUBLIC        fun64
  C:7B2FH         PUBLIC        fun55
  C:828FH         PUBLIC        fun46
  C:8747H         PUBLIC        fun37
  C:8492H         PUBLIC        fun28
  C:7ADFH         PUBLIC        fun19
  C:82F4H         PUBLIC        _Show_one_number
  D:0088H         PUBLIC        TCON
  C:85E1H         PUBLIC        fun92
  C:85A9H         PUBLIC        fun83
  C:7D5FH         PUBLIC        fun74
  C:7F97H         PUBLIC        fun65
  C:7B57H         PUBLIC        fun56
  C:8591H         PUBLIC        fun47
  C:874CH         PUBLIC        fun38
  C:8729H         PUBLIC        fun29
  B:00A0H.4       PUBLIC        P24
  C:7787H         PUBLIC        fun93
  C:85B1H         PUBLIC        fun84
  C:7D87H         PUBLIC        fun75
  C:7C6FH         PUBLIC        fun66
  C:7F51H         PUBLIC        fun57
  C:8599H         PUBLIC        fun48
  C:8751H         PUBLIC        fun39
  C:78A3H         PUBLIC        fun94
  C:85B9H         PUBLIC        fun85
  C:7DAFH         PUBLIC        fun76
  C:7C97H         PUBLIC        fun67
  C:7B7FH         PUBLIC        fun58
  C:739FH         PUBLIC        fun49
  C:5A06H         PUBLIC        tm1629_load
  B:0090H.7       PUBLIC        P17
  C:6650H         PUBLIC        CycleUp
  C:748CH         PUBLIC        fun95
  C:85C1H         PUBLIC        fun86
  C:8000H         PUBLIC        fun77
  C:7CBFH         PUBLIC        fun68
  C:7BA7H         PUBLIC        fun59
  C:876FH         PUBLIC        fun96
  C:8256H         PUBLIC        fun87
  C:7DD7H         PUBLIC        fun78
  C:7FBAH         PUBLIC        fun69
  B:00C8H.5       PUBLIC        P55
  C:85E9H         PUBLIC        fun97
  C:85C9H         PUBLIC        fun88
  C:7DFFH         PUBLIC        fun79
  C:8774H         PUBLIC        fun98
  C:7E9CH         PUBLIC        fun89
  C:85F1H         PUBLIC        fun99
  B:0080H.2       PUBLIC        TM1629_STB
  C:8338H         PUBLIC        Show_off
  C:4C66H         PUBLIC        _Search_funtion
BL51 BANKED LINKER/LOCATER V6.22                                                      03/10/2016  16:30:11  PAGE 71


  C:80CDH         SYMBOL        _?ix1000
  C:7A35H         PUBLIC        _writeDataTo1629
  C:80D5H         SYMBOL        _?ix1001
  C:80DBH         SYMBOL        _?ix1002
  C:80E1H         SYMBOL        _?ix1003
  C:80E7H         SYMBOL        _?ix1004
  C:6FE1H         PUBLIC        tm1629_init
  C:79D6H         PUBLIC        _Show_two_number
  C:7E76H         PUBLIC        _global_display
  C:7447H         PUBLIC        _mcuram_to_mcuram_down
  C:7A60H         PUBLIC        _writeDataTo1629_2
  C:7A8BH         PUBLIC        _writeDataTo1629_3
  C:4AEAH         PUBLIC        CycleProcess
  C:810CH         PUBLIC        _tm1629_E
  C:8779H         PUBLIC        fun100
  C:85F9H         PUBLIC        fun101
  C:877EH         PUBLIC        fun102
  C:0026H         PUBLIC        fun103
  C:3C6DH         PUBLIC        tm1629_read_key
  C:84A4H         PUBLIC        fun104
  C:6413H         PUBLIC        fun105
  C:838DH         PUBLIC        Show_on
  X:0395H         PUBLIC        Two_Menu_FE_E2_table
  C:61AFH         PUBLIC        LogoutProcess
  C:6ABAH         PUBLIC        fun106
  C:6F0FH         PUBLIC        _Transmit_show_three_number
  C:4232H         PUBLIC        _mcuram_to_displayram
  C:479EH         PUBLIC        Display_time
  C:832BH         PUBLIC        _send_command
  B:0080H.3       PUBLIC        TM1629_STB2
  B:00C8H.4       PUBLIC        TM1629_STB3
  X:0396H         PUBLIC        Two_Menu_FE_E1_addr
  X:0398H         PUBLIC        Two_Menu_FE_E2_data
  X:03A2H         PUBLIC        Two_Menu_FE_E2_addr
  C:7607H         PUBLIC        _display_light
  X:03A4H         PUBLIC        Two_Menu_F8_E1_save
  C:7EE6H         PUBLIC        fun0
  C:6C7AH         PUBLIC        display
  D:00D0H         PUBLIC        PSW
  C:0006H         PUBLIC        fun1
  C:80EDH         PUBLIC        _tm1629_f
  C:812BH         PUBLIC        fun2
  C:6B4FH         PUBLIC        Logout
  C:8149H         PUBLIC        fun3
  C:72B9H         PUBLIC        _mcuram_to_mcuram_up
  -------         PROC          _WRITEDATATO1629
  D:0007H         SYMBOL        p
  -------         DO            
  D:0004H         SYMBOL        i
  -------         ENDDO         
  C:7A35H         LINE#         35
  C:7A35H         LINE#         36
  C:7A35H         LINE#         38
  C:7A37H         LINE#         39
  C:7A3AH         LINE#         40
  C:7A3AH         LINE#         41
  C:7A3CH         LINE#         42
BL51 BANKED LINKER/LOCATER V6.22                                                      03/10/2016  16:30:11  PAGE 72


  C:7A40H         LINE#         43
  C:7A44H         LINE#         45
  C:7A46H         LINE#         46
  C:7A47H         LINE#         47
  C:7A48H         LINE#         48
  C:7A49H         LINE#         49
  C:7A4AH         LINE#         50
  C:7A4CH         LINE#         51
  C:7A50H         LINE#         52
  C:7A5BH         LINE#         53
  C:7A5DH         LINE#         54
  C:7A5FH         LINE#         55
  -------         ENDPROC       _WRITEDATATO1629
  -------         PROC          _WRITEDATATO1629_2
  D:0007H         SYMBOL        p
  -------         DO            
  D:0004H         SYMBOL        i
  -------         ENDDO         
  C:7A60H         LINE#         57
  C:7A60H         LINE#         58
  C:7A60H         LINE#         60
  C:7A62H         LINE#         61
  C:7A65H         LINE#         62
  C:7A65H         LINE#         63
  C:7A67H         LINE#         64
  C:7A6BH         LINE#         65
  C:7A6FH         LINE#         67
  C:7A71H         LINE#         68
  C:7A72H         LINE#         69
  C:7A73H         LINE#         70
  C:7A74H         LINE#         71
  C:7A75H         LINE#         72
  C:7A77H         LINE#         73
  C:7A7BH         LINE#         74
  C:7A86H         LINE#         75
  C:7A88H         LINE#         76
  C:7A8AH         LINE#         77
  -------         ENDPROC       _WRITEDATATO1629_2
  -------         PROC          _WRITEDATATO1629_3
  D:0007H         SYMBOL        p
  -------         DO            
  D:0004H         SYMBOL        i
  -------         ENDDO         
  C:7A8BH         LINE#         79
  C:7A8BH         LINE#         80
  C:7A8BH         LINE#         82
  C:7A8DH         LINE#         83
  C:7A90H         LINE#         84
  C:7A90H         LINE#         85
  C:7A92H         LINE#         86
  C:7A96H         LINE#         87
  C:7A9AH         LINE#         89
  C:7A9CH         LINE#         90
  C:7A9DH         LINE#         91
  C:7A9EH         LINE#         92
  C:7A9FH         LINE#         93
  C:7AA0H         LINE#         94
BL51 BANKED LINKER/LOCATER V6.22                                                      03/10/2016  16:30:11  PAGE 73


  C:7AA2H         LINE#         95
  C:7AA6H         LINE#         96
  C:7AB1H         LINE#         97
  C:7AB3H         LINE#         98
  C:7AB5H         LINE#         99
  -------         ENDPROC       _WRITEDATATO1629_3
  -------         PROC          L?0554
  -------         ENDPROC       L?0554
  -------         PROC          _SEND_COMMAND
  D:0007H         SYMBOL        word
  C:832BH         LINE#         101
  C:832BH         LINE#         102
  C:832BH         LINE#         103
  C:832DH         LINE#         104
  C:8333H         LINE#         105
  C:8335H         LINE#         106
  -------         ENDPROC       _SEND_COMMAND
  -------         PROC          L?0552
  -------         ENDPROC       L?0552
  -------         PROC          _SEND_COMMAND_2
  D:0007H         SYMBOL        word
  C:82B5H         LINE#         109
  C:82B5H         LINE#         110
  C:82B5H         LINE#         111
  C:82B7H         LINE#         112
  C:82BDH         LINE#         113
  C:82BFH         LINE#         114
  -------         ENDPROC       _SEND_COMMAND_2
  -------         PROC          L?0553
  -------         ENDPROC       L?0553
  -------         PROC          _SEND_COMMAND_3
  D:0007H         SYMBOL        word
  C:82CEH         LINE#         117
  C:82CEH         LINE#         118
  C:82CEH         LINE#         119
  C:82D0H         LINE#         120
  C:82D6H         LINE#         121
  C:82D8H         LINE#         122
  -------         ENDPROC       _SEND_COMMAND_3
  C:6C75H         SYMBOL        L?0547
  C:6C76H         SYMBOL        L?0548
  -------         PROC          L?0546
  -------         ENDPROC       L?0546
  C:6C75H         SYMBOL        L?0547
  C:6C76H         SYMBOL        L?0548
  -------         PROC          DISPLAY
  -------         DO            
  D:0003H         SYMBOL        i
  D:0006H         SYMBOL        temp
  -------         ENDDO         
  C:6C7AH         LINE#         125
  C:6C7AH         LINE#         126
  C:6C7AH         LINE#         128
  C:6C7DH         LINE#         129
  C:6C7DH         LINE#         130
  C:6C80H         LINE#         131
  C:6C82H         LINE#         132
BL51 BANKED LINKER/LOCATER V6.22                                                      03/10/2016  16:30:11  PAGE 74


  C:6C82H         LINE#         133
  C:6C91H         LINE#         134
  C:6CA0H         LINE#         135
  C:6CA5H         LINE#         136
  C:6CA9H         LINE#         137
  C:6CA9H         LINE#         139
  C:6CA9H         LINE#         140
  C:6CACH         LINE#         141
  C:6CAEH         LINE#         142
  C:6CAEH         LINE#         143
  C:6CBDH         LINE#         144
  C:6CCCH         LINE#         145
  C:6CD1H         LINE#         146
  C:6CD5H         LINE#         147
  C:6CD5H         LINE#         149
  C:6CD5H         LINE#         150
  C:6CD8H         LINE#         151
  C:6CDAH         LINE#         152
  C:6CDAH         LINE#         153
  C:6CE9H         LINE#         154
  C:6CF8H         LINE#         155
  C:6CFDH         LINE#         156
  C:6D04H         LINE#         157
  C:6D06H         LINE#         158
  -------         ENDPROC       DISPLAY
  -------         PROC          TM1629_READ_KEY
  -------         DO            
  D:0007H         SYMBOL        i
  X:058FH         SYMBOL        j
  X:0590H         SYMBOL        key_temp
  -------         ENDDO         
  C:3C6DH         LINE#         162
  C:3C6DH         LINE#         163
  C:3C6DH         LINE#         165
  C:3C73H         LINE#         166
  C:3C78H         LINE#         167
  C:3C7AH         LINE#         168
  C:3C7FH         LINE#         169
  C:3C7FH         LINE#         170
  C:3C81H         LINE#         171
  C:3C81H         LINE#         172
  C:3C83H         LINE#         173
  C:3C95H         LINE#         174
  C:3C97H         LINE#         175
  C:3C9AH         LINE#         176
  C:3CA8H         LINE#         177
  C:3CAEH         LINE#         178
  C:3CB3H         LINE#         179
  C:3CB9H         LINE#         180
  C:3CBFH         LINE#         181
  C:3CD5H         LINE#         182
  C:3CD5H         LINE#         183
  C:3CF6H         LINE#         184
  C:3CF6H         LINE#         185
  C:3CFEH         LINE#         186
  C:3D06H         LINE#         187
  C:3D0EH         LINE#         188
BL51 BANKED LINKER/LOCATER V6.22                                                      03/10/2016  16:30:11  PAGE 75


  C:3D16H         LINE#         189
  C:3D1EH         LINE#         190
  C:3D26H         LINE#         191
  C:3D2EH         LINE#         192
  C:3D34H         LINE#         193
  C:3D34H         LINE#         194
  C:3D34H         LINE#         195
  C:3D58H         LINE#         196
  C:3D58H         LINE#         197
  C:3D60H         LINE#         198
  C:3D68H         LINE#         199
  C:3D70H         LINE#         200
  C:3D78H         LINE#         201
  C:3D80H         LINE#         202
  C:3D88H         LINE#         203
  C:3D90H         LINE#         204
  C:3D96H         LINE#         205
  C:3D96H         LINE#         206
  C:3D96H         LINE#         207
  C:3DBAH         LINE#         208
  C:3DBAH         LINE#         209
  C:3DC2H         LINE#         210
  C:3DCAH         LINE#         211
  C:3DD2H         LINE#         212
  C:3DDAH         LINE#         213
  C:3DE2H         LINE#         214
  C:3DEAH         LINE#         215
  C:3DF2H         LINE#         216
  C:3DF8H         LINE#         217
  C:3DF8H         LINE#         218
  C:3DF8H         LINE#         219
  C:3E1CH         LINE#         220
  C:3E1CH         LINE#         221
  C:3E24H         LINE#         222
  C:3E2CH         LINE#         223
  C:3E34H         LINE#         224
  C:3E3CH         LINE#         225
  C:3E44H         LINE#         226
  C:3E4CH         LINE#         227
  C:3E54H         LINE#         228
  C:3E5AH         LINE#         229
  C:3E5AH         LINE#         230
  C:3E5AH         LINE#         231
  C:3E5AH         LINE#         232
  C:3E68H         LINE#         233
  C:3E6AH         LINE#         234
  C:3E6CH         LINE#         235
  C:3E6EH         LINE#         237
  C:3E73H         LINE#         238
  -------         ENDPROC       TM1629_READ_KEY
  -------         PROC          _DISPLAY_LIGHT
  D:0006H         SYMBOL        temp
  -------         DO            
  D:0003H         SYMBOL        i
  -------         ENDDO         
  C:7607H         LINE#         242
  C:7607H         LINE#         243
BL51 BANKED LINKER/LOCATER V6.22                                                      03/10/2016  16:30:11  PAGE 76


  C:7607H         LINE#         245
  C:7607H         LINE#         246
  C:760AH         LINE#         247
  C:760CH         LINE#         248
  C:760CH         LINE#         249
  C:7611H         LINE#         250
  C:7616H         LINE#         251
  C:761BH         LINE#         252
  C:761DH         LINE#         253
  C:761DH         LINE#         255
  C:761DH         LINE#         256
  C:7620H         LINE#         257
  C:7622H         LINE#         258
  C:7622H         LINE#         259
  C:7627H         LINE#         260
  C:762CH         LINE#         261
  C:7631H         LINE#         262
  C:7633H         LINE#         263
  C:7633H         LINE#         265
  C:7633H         LINE#         266
  C:7636H         LINE#         267
  C:7638H         LINE#         268
  C:7638H         LINE#         269
  C:763DH         LINE#         270
  C:7642H         LINE#         271
  C:7647H         LINE#         272
  C:764CH         LINE#         273
  C:764EH         LINE#         274
  -------         ENDPROC       _DISPLAY_LIGHT
  -------         PROC          TM1629_INIT
  -------         DO            
  D:0007H         SYMBOL        i
  D:0006H         SYMBOL        j
  X:0584H         SYMBOL        k
  -------         ENDDO         
  C:6FE1H         LINE#         276
  C:6FE1H         LINE#         277
  C:6FE1H         LINE#         279
  C:6FE6H         LINE#         280
  C:6FE6H         LINE#         281
  C:6FE8H         LINE#         282
  C:6FE8H         LINE#         283
  C:6FEAH         LINE#         284
  C:6FEAH         LINE#         285
  C:7013H         LINE#         286
  C:7018H         LINE#         287
  C:701DH         LINE#         288
  C:7020H         LINE#         289
  C:7027H         LINE#         290
  C:702EH         LINE#         291
  C:7033H         LINE#         292
  C:703FH         LINE#         293
  -------         ENDPROC       TM1629_INIT
  -------         PROC          _TM1629_DELAY
  D:0007H         SYMBOL        k
  -------         DO            
  D:0006H         SYMBOL        i
BL51 BANKED LINKER/LOCATER V6.22                                                      03/10/2016  16:30:11  PAGE 77


  D:0005H         SYMBOL        j
  -------         ENDDO         
  C:8402H         LINE#         296
  C:8402H         LINE#         297
  C:8402H         LINE#         299
  C:8408H         LINE#         300
  C:8408H         LINE#         301
  C:840AH         LINE#         302
  C:840AH         LINE#         303
  C:840CH         LINE#         304
  C:840CH         LINE#         307
  C:840EH         LINE#         308
  C:8410H         LINE#         309
  C:8413H         LINE#         310
  -------         ENDPROC       _TM1629_DELAY
  -------         PROC          TM1629_CLEAR
  -------         DO            
  D:0007H         SYMBOL        i
  D:0006H         SYMBOL        j
  -------         ENDDO         
  C:7AB6H         LINE#         312
  C:7AB6H         LINE#         313
  C:7AB6H         LINE#         315
  C:7AB8H         LINE#         316
  C:7AB8H         LINE#         317
  C:7ABAH         LINE#         318
  C:7ABAH         LINE#         319
  C:7AD4H         LINE#         320
  C:7AD9H         LINE#         321
  C:7ADEH         LINE#         322
  -------         ENDPROC       TM1629_CLEAR
  -------         PROC          TM1629_DISPLAY_BUFF_CLEAR
  -------         DO            
  D:0007H         SYMBOL        i
  -------         ENDDO         
  C:8531H         LINE#         324
  C:8531H         LINE#         325
  C:8531H         LINE#         327
  C:8531H         LINE#         328
  C:853BH         LINE#         329
  -------         ENDPROC       TM1629_DISPLAY_BUFF_CLEAR
  -------         PROC          TM1629_AWAIT
  -------         DO            
  D:0007H         SYMBOL        i
  D:0007H         SYMBOL        await_number_table_temp
  -------         ENDDO         
  C:77FBH         LINE#         331
  C:77FBH         LINE#         332
  C:77FBH         LINE#         334
  C:77FDH         LINE#         335
  C:7800H         LINE#         336
  C:7805H         LINE#         337
  C:7805H         LINE#         339
  C:7808H         LINE#         340
  C:780BH         LINE#         341
  C:7812H         LINE#         342
  C:781EH         LINE#         343
BL51 BANKED LINKER/LOCATER V6.22                                                      03/10/2016  16:30:11  PAGE 78


  C:7821H         LINE#         344
  C:7826H         LINE#         345
  C:782CH         LINE#         346
  C:7830H         LINE#         347
  C:7832H         LINE#         348
  C:7832H         LINE#         349
  -------         ENDPROC       TM1629_AWAIT
  -------         PROC          DISPLAY_TIME
  C:479EH         LINE#         351
  C:479EH         LINE#         352
  C:479EH         LINE#         353
  C:47A7H         LINE#         354
  C:47A7H         LINE#         355
  C:47AAH         LINE#         356
  C:47ADH         LINE#         357
  C:47B5H         LINE#         358
  C:47BDH         LINE#         359
  C:47D4H         LINE#         360
  C:47E9H         LINE#         363
  C:4800H         LINE#         364
  C:4815H         LINE#         367
  C:482CH         LINE#         368
  C:4840H         LINE#         370
  C:4840H         LINE#         372
  C:4840H         LINE#         373
  C:4840H         LINE#         374
  C:4840H         LINE#         375
  C:4840H         LINE#         377
  C:4840H         LINE#         379
  C:4843H         LINE#         381
  C:4843H         LINE#         382
  C:4846H         LINE#         383
  C:4849H         LINE#         384
  C:4851H         LINE#         385
  C:4859H         LINE#         386
  C:4870H         LINE#         387
  C:4885H         LINE#         390
  C:489CH         LINE#         391
  C:48B1H         LINE#         394
  C:48C8H         LINE#         395
  C:48DDH         LINE#         397
  C:48EFH         LINE#         399
  C:4906H         LINE#         400
  C:491BH         LINE#         401
  C:4932H         LINE#         402
  C:4943H         LINE#         404
  C:4946H         LINE#         405
  C:4946H         LINE#         406
  -------         ENDPROC       DISPLAY_TIME
  -------         PROC          _TM1629_F
  D:0005H         SYMBOL        f_number
  C:80EDH         LINE#         408
  C:80EFH         LINE#         409
  C:80EFH         LINE#         410
  C:80F2H         LINE#         411
  C:80FAH         LINE#         412
  C:8109H         LINE#         413
BL51 BANKED LINKER/LOCATER V6.22                                                      03/10/2016  16:30:11  PAGE 79


  -------         ENDPROC       _TM1629_F
  -------         PROC          _TM1629_E
  D:0005H         SYMBOL        f_number
  C:810CH         LINE#         416
  C:810EH         LINE#         417
  C:810EH         LINE#         418
  C:8111H         LINE#         419
  C:8119H         LINE#         420
  C:8128H         LINE#         421
  -------         ENDPROC       _TM1629_E
  -------         PROC          SHOW_ON
  C:838DH         LINE#         423
  C:838DH         LINE#         424
  C:838DH         LINE#         425
  C:8390H         LINE#         426
  C:8398H         LINE#         427
  C:839EH         LINE#         428
  -------         ENDPROC       SHOW_ON
  -------         PROC          SHOW_OFF
  C:8338H         LINE#         431
  C:8338H         LINE#         432
  C:8338H         LINE#         433
  C:833BH         LINE#         434
  C:8343H         LINE#         435
  C:834BH         LINE#         436
  -------         ENDPROC       SHOW_OFF
  -------         PROC          _SHOW_ONE_NUMBER
  D:0005H         SYMBOL        f_number
  C:82F4H         LINE#         439
  C:82F6H         LINE#         440
  C:82F6H         LINE#         441
  C:82F9H         LINE#         443
  C:8308H         LINE#         444
  -------         ENDPROC       _SHOW_ONE_NUMBER
  -------         PROC          _SHOW_TWO_NUMBER
  D:0005H         SYMBOL        f_number
  C:79D6H         LINE#         447
  C:79D8H         LINE#         448
  C:79D8H         LINE#         449
  C:79DBH         LINE#         450
  C:79EEH         LINE#         451
  C:7A03H         LINE#         452
  -------         ENDPROC       _SHOW_TWO_NUMBER
  -------         PROC          _SHOW_THREE_NUMBER
  D:0002H         SYMBOL        f_number
  C:7040H         LINE#         456
  C:7044H         LINE#         457
  C:7044H         LINE#         458
  C:7047H         LINE#         459
  C:7061H         LINE#         460
  C:7082H         LINE#         461
  C:709CH         LINE#         462
  -------         ENDPROC       _SHOW_THREE_NUMBER
  C:70FBH         SYMBOL        L?0550
  -------         PROC          L?0549
  -------         ENDPROC       L?0549
  C:70FBH         SYMBOL        L?0550
BL51 BANKED LINKER/LOCATER V6.22                                                      03/10/2016  16:30:11  PAGE 80


  -------         PROC          _SHOW_FOUR_NUMBER
  D:0001H         SYMBOL        temp
  C:7101H         LINE#         465
  C:7101H         LINE#         466
  C:7101H         LINE#         467
  C:7104H         LINE#         468
  C:7115H         LINE#         469
  C:7129H         LINE#         470
  C:713DH         LINE#         471
  C:7151H         LINE#         472
  -------         ENDPROC       _SHOW_FOUR_NUMBER
  -------         PROC          _TRANSMIT_SHOW_FOUR_NUMBER
  D:0002H         SYMBOL        temp
  C:6597H         LINE#         476
  C:659BH         LINE#         477
  C:659BH         LINE#         478
  C:65A2H         LINE#         479
  C:65A2H         LINE#         480
  C:65B4H         LINE#         481
  C:65BAH         LINE#         482
  C:65BEH         LINE#         483
  C:65BEH         LINE#         484
  C:65C1H         LINE#         486
  C:65C1H         LINE#         487
  C:65C5H         LINE#         488
  C:65C5H         LINE#         489
  C:65CBH         LINE#         490
  C:65CFH         LINE#         491
  C:65D3H         LINE#         492
  C:65D3H         LINE#         493
  C:65D5H         LINE#         495
  C:65D5H         LINE#         496
  C:65E7H         LINE#         497
  C:660EH         LINE#         498
  C:6635H         LINE#         499
  C:664FH         LINE#         500
  C:664FH         LINE#         501
  C:664FH         LINE#         502
  -------         ENDPROC       _TRANSMIT_SHOW_FOUR_NUMBER
  -------         PROC          _TRANSMIT_SHOW_THREE_NUMBER
  D:0002H         SYMBOL        temp
  C:6F0FH         LINE#         505
  C:6F13H         LINE#         506
  C:6F13H         LINE#         507
  C:6F36H         LINE#         508
  C:6F5DH         LINE#         509
  C:6F77H         LINE#         510
  -------         ENDPROC       _TRANSMIT_SHOW_THREE_NUMBER
  -------         PROC          TRANSMIT_SHOW_TWO_NUMBER
  -------         DO            
  X:05BAH         SYMBOL        i
  -------         ENDDO         
  C:7154H         LINE#         512
  C:7154H         LINE#         513
  C:7154H         LINE#         515
  C:7165H         LINE#         516
  C:7165H         LINE#         517
BL51 BANKED LINKER/LOCATER V6.22                                                      03/10/2016  16:30:11  PAGE 81


  C:7177H         LINE#         518
  C:7177H         LINE#         519
  C:7177H         LINE#         520
  C:7177H         LINE#         521
  C:717FH         LINE#         522
  C:7196H         LINE#         523
  C:71ABH         LINE#         524
  -------         ENDPROC       TRANSMIT_SHOW_TWO_NUMBER
  -------         PROC          TRANSMIT_SHOW_WAIT_NUMBER
  -------         DO            
  D:0002H         SYMBOL        temp
  -------         ENDDO         
  C:6A22H         LINE#         526
  C:6A22H         LINE#         527
  C:6A22H         LINE#         530
  C:6A3DH         LINE#         531
  C:6A3DH         LINE#         532
  C:6A40H         LINE#         533
  C:6A42H         LINE#         535
  C:6A42H         LINE#         536
  C:6A5EH         LINE#         537
  C:6A5EH         LINE#         539
  C:6A78H         LINE#         540
  C:6A9FH         LINE#         541
  C:6AB9H         LINE#         542
  -------         ENDPROC       TRANSMIT_SHOW_WAIT_NUMBER
  -------         PROC          TM1629_LOAD
  C:5A06H         LINE#         545
  C:5A06H         LINE#         546
  C:5A06H         LINE#         577
  C:5A09H         LINE#         578
  C:5A0FH         LINE#         579
  C:5A26H         LINE#         580
  C:5A2CH         LINE#         581
  C:5A43H         LINE#         582
  C:5A49H         LINE#         583
  C:5A60H         LINE#         584
  C:5A66H         LINE#         585
  C:5A7DH         LINE#         586
  C:5A83H         LINE#         587
  C:5A9AH         LINE#         588
  C:5AA0H         LINE#         589
  C:5AB7H         LINE#         590
  C:5ABDH         LINE#         591
  C:5AD4H         LINE#         592
  C:5ADAH         LINE#         593
  C:5AF1H         LINE#         594
  C:5AF7H         LINE#         595
  C:5B0EH         LINE#         596
  C:5B19H         LINE#         597
  C:5B24H         LINE#         598
  C:5B27H         LINE#         599
  -------         ENDPROC       TM1629_LOAD
  -------         PROC          _MCURAM_TO_DISPLAYRAM
  X:05BAH         SYMBOL        a
  X:05BDH         SYMBOL        b
  C:4232H         LINE#         605
BL51 BANKED LINKER/LOCATER V6.22                                                      03/10/2016  16:30:11  PAGE 82


  C:423DH         LINE#         606
  C:423DH         LINE#         611
  C:4266H         LINE#         612
  C:4294H         LINE#         613
  C:42C2H         LINE#         614
  C:42F0H         LINE#         616
  C:4321H         LINE#         617
  C:4321H         LINE#         618
  C:4321H         LINE#         619
  C:433AH         LINE#         620
  C:433AH         LINE#         622
  C:433DH         LINE#         623
  C:433DH         LINE#         624
  C:4356H         LINE#         625
  C:436FH         LINE#         626
  C:4388H         LINE#         627
  C:4393H         LINE#         628
  C:4395H         LINE#         629
  C:4395H         LINE#         630
  C:43AEH         LINE#         631
  C:43C7H         LINE#         632
  C:43D8H         LINE#         633
  C:43DAH         LINE#         634
  C:43DAH         LINE#         635
  C:43EBH         LINE#         636
  C:43EDH         LINE#         637
  C:43EDH         LINE#         638
  C:4406H         LINE#         639
  C:4406H         LINE#         640
  C:4406H         LINE#         641
  C:4406H         LINE#         644
  -------         ENDPROC       _MCURAM_TO_DISPLAYRAM
  -------         PROC          _GLOBAL_DISPLAY
  D:0001H         SYMBOL        a
  X:05AFH         SYMBOL        index
  C:7E76H         LINE#         647
  C:7E76H         LINE#         648
  C:7E76H         LINE#         649
  C:7E96H         LINE#         650
  C:7E99H         LINE#         651
  -------         ENDPROC       _GLOBAL_DISPLAY
  -------         PROC          _DECODER_TEMP_TO_MCURAM
  X:05B2H         SYMBOL        a
  X:05B5H         SYMBOL        index
  C:5E5BH         LINE#         655
  C:5E66H         LINE#         656
  C:5E66H         LINE#         657
  C:5E82H         LINE#         658
  C:5EA6H         LINE#         659
  C:5ECAH         LINE#         660
  C:5EEEH         LINE#         661
  C:5F12H         LINE#         662
  -------         ENDPROC       _DECODER_TEMP_TO_MCURAM
  -------         PROC          L?0555
  -------         ENDPROC       L?0555
  -------         PROC          _MCURAM_TO_MCURAM_DOWN
  D:0001H         SYMBOL        a
BL51 BANKED LINKER/LOCATER V6.22                                                      03/10/2016  16:30:11  PAGE 83


  C:7447H         LINE#         665
  C:7447H         LINE#         666
  C:7447H         LINE#         667
  C:7450H         LINE#         668
  C:745CH         LINE#         669
  C:7468H         LINE#         670
  C:7474H         LINE#         671
  C:7480H         LINE#         672
  -------         ENDPROC       _MCURAM_TO_MCURAM_DOWN
  -------         PROC          L?0551
  -------         ENDPROC       L?0551
  -------         PROC          _MCURAM_TO_MCURAM_UP
  D:0001H         SYMBOL        a
  C:72B9H         LINE#         676
  C:72B9H         LINE#         677
  C:72B9H         LINE#         678
  C:72C2H         LINE#         679
  C:72CEH         LINE#         680
  C:72DAH         LINE#         681
  C:72E6H         LINE#         682
  C:72F2H         LINE#         683
  -------         ENDPROC       _MCURAM_TO_MCURAM_UP
  -------         PROC          CYCLEPROCESS
  -------         DO            
  X:05ACH         SYMBOL        i
  X:05ADH         SYMBOL        index
  X:05AEH         SYMBOL        f5_xunhuan
  X:05AFH         SYMBOL        f4_xiaohao
  D:0007H         SYMBOL        logout_cycle_table_temp
  X:05B0H         SYMBOL        temp
  X:05B8H         SYMBOL        Two_Menu_F6_E3_temp
  X:05B9H         SYMBOL        Two_Menu_F6_E1_temp
  -------         ENDDO         
  C:4AEAH         LINE#         686
  C:4AEAH         LINE#         687
  C:4AEAH         LINE#         690
  C:4AFDH         LINE#         691
  C:4B02H         LINE#         692
  C:4B04H         LINE#         694
  C:4B0CH         LINE#         695
  C:4B14H         LINE#         697
  C:4B1CH         LINE#         698
  C:4B24H         LINE#         699
  C:4B27H         LINE#         701
  C:4B5AH         LINE#         702
  C:4B5AH         LINE#         703
  C:4B69H         LINE#         704
  C:4B69H         LINE#         705
  C:4B7BH         LINE#         706
  C:4B7BH         LINE#         707
  C:4B81H         LINE#         708
  C:4B83H         LINE#         709
  C:4B83H         LINE#         710
  C:4B8BH         LINE#         712
  C:4B90H         LINE#         713
  C:4B90H         LINE#         714
  C:4BCAH         LINE#         715
BL51 BANKED LINKER/LOCATER V6.22                                                      03/10/2016  16:30:11  PAGE 84


  C:4BD4H         LINE#         717
  C:4BE6H         LINE#         718
  C:4BE6H         LINE#         719
  C:4BFBH         LINE#         720
  C:4C03H         LINE#         721
  C:4C08H         LINE#         722
  C:4C08H         LINE#         723
  C:4C24H         LINE#         724
  C:4C2EH         LINE#         725
  C:4C31H         LINE#         726
  C:4C34H         LINE#         727
  C:4C39H         LINE#         728
  C:4C40H         LINE#         729
  C:4C40H         LINE#         730
  C:4C65H         LINE#         731
  C:4C65H         LINE#         732
  C:4C65H         LINE#         733
  -------         ENDPROC       CYCLEPROCESS
  -------         PROC          LOGOUTPROCESS
  -------         DO            
  X:05ACH         SYMBOL        i
  X:05ADH         SYMBOL        f5_xunhuan
  X:05AEH         SYMBOL        f4_xiaohao
  X:05AFH         SYMBOL        logout_cycle_table_temp
  X:05B0H         SYMBOL        Two_Menu_F3_E2_temp
  X:05B1H         SYMBOL        Two_Menu_F3_E1_temp
  X:05B2H         SYMBOL        Two_Menu_F6_E1_temp
  X:05B3H         SYMBOL        Two_Menu_F6_E2_temp
  -------         ENDDO         
  C:61AFH         LINE#         735
  C:61AFH         LINE#         736
  C:61AFH         LINE#         739
  C:61B4H         LINE#         740
  C:61B6H         LINE#         742
  C:61BEH         LINE#         743
  C:61C6H         LINE#         744
  C:61CEH         LINE#         745
  C:61D6H         LINE#         746
  C:61DEH         LINE#         747
  C:61E6H         LINE#         749
  C:6211H         LINE#         750
  C:6211H         LINE#         751
  C:6225H         LINE#         752
  C:6225H         LINE#         753
  C:6229H         LINE#         754
  C:6231H         LINE#         755
  C:6255H         LINE#         756
  C:6255H         LINE#         757
  C:6261H         LINE#         758
  C:6269H         LINE#         759
  C:626CH         LINE#         760
  C:626FH         LINE#         761
  C:6274H         LINE#         762
  C:627AH         LINE#         763
  C:627AH         LINE#         764
  C:627EH         LINE#         765
  C:627EH         LINE#         766
BL51 BANKED LINKER/LOCATER V6.22                                                      03/10/2016  16:30:11  PAGE 85


  C:627EH         LINE#         767
  C:627EH         LINE#         793
  C:627EH         LINE#         794
  C:627EH         LINE#         795
  -------         ENDPROC       LOGOUTPROCESS
  -------         PROC          LOGOUT
  -------         DO            
  D:0004H         SYMBOL        i
  X:0588H         SYMBOL        Two_Menu_F3_E2_temp
  -------         ENDDO         
  C:6B4FH         LINE#         801
  C:6B4FH         LINE#         802
  C:6B4FH         LINE#         804
  C:6B54H         LINE#         805
  C:6B5CH         LINE#         807
  C:6B71H         LINE#         808
  C:6B71H         LINE#         809
  C:6B89H         LINE#         810
  C:6B90H         LINE#         811
  C:6BB9H         LINE#         812
  C:6BB9H         LINE#         813
  C:6BC5H         LINE#         814
  C:6BCCH         LINE#         815
  C:6BD2H         LINE#         816
  C:6BD5H         LINE#         817
  C:6BD8H         LINE#         818
  C:6BDEH         LINE#         819
  C:6BDEH         LINE#         820
  C:6BE2H         LINE#         821
  C:6BE2H         LINE#         822
  -------         ENDPROC       LOGOUT
  -------         PROC          CYCLEUP
  -------         DO            
  D:0004H         SYMBOL        i
  X:0588H         SYMBOL        index
  D:0005H         SYMBOL        Two_Menu_F3_E2_temp
  X:0589H         SYMBOL        temp
  -------         ENDDO         
  C:6650H         LINE#         824
  C:6650H         LINE#         825
  C:6650H         LINE#         827
  C:6663H         LINE#         828
  C:666BH         LINE#         829
  C:6670H         LINE#         831
  C:6677H         LINE#         832
  C:6677H         LINE#         833
  C:6689H         LINE#         834
  C:6689H         LINE#         835
  C:668EH         LINE#         836
  C:6690H         LINE#         837
  C:6690H         LINE#         838
  C:6693H         LINE#         839
  C:6695H         LINE#         840
  C:6695H         LINE#         841
  C:66ADH         LINE#         842
  C:66B2H         LINE#         843
  C:66BEH         LINE#         844
BL51 BANKED LINKER/LOCATER V6.22                                                      03/10/2016  16:30:11  PAGE 86


  C:66BEH         LINE#         845
  C:66C2H         LINE#         846
  C:66C5H         LINE#         847
  C:66C7H         LINE#         848
  C:66C7H         LINE#         849
  C:66FDH         LINE#         850
  C:6702H         LINE#         851
  C:6705H         LINE#         852
  -------         ENDPROC       CYCLEUP
  -------         PROC          CYCLEDOWN
  -------         DO            
  X:0588H         SYMBOL        i
  X:0589H         SYMBOL        index
  D:0005H         SYMBOL        Two_Menu_F3_E2_temp
  X:058AH         SYMBOL        temp
  -------         ENDDO         
  C:5D62H         LINE#         855
  C:5D62H         LINE#         856
  C:5D62H         LINE#         858
  C:5D75H         LINE#         859
  C:5D7DH         LINE#         860
  C:5D82H         LINE#         862
  C:5D90H         LINE#         863
  C:5D90H         LINE#         864
  C:5DA2H         LINE#         865
  C:5DA2H         LINE#         866
  C:5DA8H         LINE#         867
  C:5DAAH         LINE#         868
  C:5DAAH         LINE#         869
  C:5DB2H         LINE#         871
  C:5DB7H         LINE#         872
  C:5DB7H         LINE#         873
  C:5DF1H         LINE#         874
  C:5DFBH         LINE#         876
  C:5E0DH         LINE#         877
  C:5E0DH         LINE#         878
  C:5E22H         LINE#         879
  C:5E2AH         LINE#         880
  C:5E2FH         LINE#         881
  C:5E2FH         LINE#         882
  C:5E4BH         LINE#         883
  C:5E55H         LINE#         884
  C:5E58H         LINE#         885
  -------         ENDPROC       CYCLEDOWN
  -------         PROC          _CANCEL_FUNTION
  X:05ACH         SYMBOL        id_number
  X:05AFH         SYMBOL        buff
  -------         DO            
  X:05B2H         SYMBOL        i
  X:05B4H         SYMBOL        index
  X:05B6H         SYMBOL        Two_Menu_F3_E2_temp
  X:05B8H         SYMBOL        temp
  -------         ENDDO         
  C:3A44H         LINE#         888
  C:3A4FH         LINE#         889
  C:3A4FH         LINE#         896
  C:3A62H         LINE#         897
BL51 BANKED LINKER/LOCATER V6.22                                                      03/10/2016  16:30:11  PAGE 87


  C:3A6DH         LINE#         898
  C:3A78H         LINE#         900
  C:3A98H         LINE#         901
  C:3A98H         LINE#         902
  C:3B61H         LINE#         903
  C:3B61H         LINE#         904
  C:3B67H         LINE#         905
  C:3B74H         LINE#         906
  C:3B76H         LINE#         907
  C:3B76H         LINE#         908
  C:3B8AH         LINE#         909
  C:3B94H         LINE#         910
  C:3B94H         LINE#         911
  C:3B97H         LINE#         917
  C:3B97H         LINE#         918
  C:3BBCH         LINE#         919
  C:3BBCH         LINE#         920
  C:3BDBH         LINE#         921
  C:3BEBH         LINE#         922
  C:3BFFH         LINE#         923
  C:3BFFH         LINE#         924
  C:3C16H         LINE#         925
  C:3C16H         LINE#         926
  C:3C48H         LINE#         927
  C:3C58H         LINE#         928
  C:3C58H         LINE#         929
  C:3C68H         LINE#         930
  C:3C68H         LINE#         931
  C:3C6CH         LINE#         932
  C:3C6CH         LINE#         933
  -------         ENDPROC       _CANCEL_FUNTION
  -------         PROC          _SEARCH_FUNTION
  X:0591H         SYMBOL        id_number
  X:0594H         SYMBOL        buff
  -------         DO            
  D:0004H         SYMBOL        i
  X:0597H         SYMBOL        index
  D:0005H         SYMBOL        Two_Menu_F3_E2_temp
  X:0598H         SYMBOL        temp
  -------         ENDDO         
  C:4C66H         LINE#         941
  C:4C71H         LINE#         942
  C:4C71H         LINE#         949
  C:4C84H         LINE#         950
  C:4C8CH         LINE#         951
  C:4C91H         LINE#         953
  C:4C9BH         LINE#         954
  C:4C9BH         LINE#         955
  C:4D62H         LINE#         956
  C:4D62H         LINE#         957
  C:4D68H         LINE#         958
  C:4D6DH         LINE#         959
  C:4D6FH         LINE#         960
  C:4D6FH         LINE#         961
  C:4D73H         LINE#         963
  C:4D7DH         LINE#         964
  C:4D7DH         LINE#         965
BL51 BANKED LINKER/LOCATER V6.22                                                      03/10/2016  16:30:11  PAGE 88


  C:4D96H         LINE#         966
  C:4D99H         LINE#         967
  C:4DA0H         LINE#         968
  C:4DA0H         LINE#         969
  C:4DA2H         LINE#         970
  C:4DA2H         LINE#         971
  C:4DD0H         LINE#         972
  C:4DD5H         LINE#         973
  C:4DD5H         LINE#         974
  -------         ENDPROC       _SEARCH_FUNTION
  -------         PROC          FUN0
  -------         DO            
  D:0007H         SYMBOL        temp
  -------         ENDDO         
  C:7EE6H         LINE#         978
  C:7EE6H         LINE#         979
  C:7EE6H         LINE#         981
  C:7EE8H         LINE#         982
  C:7EEBH         LINE#         983
  C:7EF0H         LINE#         984
  C:7EF4H         LINE#         985
  C:7EF4H         LINE#         986
  C:7EF6H         LINE#         987
  C:7EF9H         LINE#         988
  C:7EFBH         LINE#         990
  C:7EFBH         LINE#         991
  C:7EFEH         LINE#         992
  C:7EFEH         LINE#         993
  C:7F04H         LINE#         994
  C:7F04H         LINE#         995
  C:7F07H         LINE#         996
  C:7F07H         LINE#         997
  C:7F09H         LINE#         999
  -------         ENDPROC       FUN0
  -------         PROC          FUN1
  C:0006H         LINE#         1001
  C:0006H         LINE#         1002
  C:0006H         LINE#         1003
  -------         ENDPROC       FUN1
  -------         PROC          FUN2
  C:812BH         LINE#         1006
  C:812BH         LINE#         1007
  C:812BH         LINE#         1008
  C:8130H         LINE#         1009
  C:813CH         LINE#         1010
  C:813CH         LINE#         1011
  C:8143H         LINE#         1012
  C:8148H         LINE#         1013
  C:8148H         LINE#         1014
  -------         ENDPROC       FUN2
  -------         PROC          FUN3
  C:8149H         LINE#         1016
  C:8149H         LINE#         1017
  C:8149H         LINE#         1018
  C:814EH         LINE#         1019
  C:815AH         LINE#         1020
  C:815AH         LINE#         1021
BL51 BANKED LINKER/LOCATER V6.22                                                      03/10/2016  16:30:11  PAGE 89


  C:8161H         LINE#         1022
  C:8166H         LINE#         1023
  C:8166H         LINE#         1024
  -------         ENDPROC       FUN3
  -------         PROC          FUN4
  C:8167H         LINE#         1026
  C:8167H         LINE#         1027
  C:8167H         LINE#         1028
  C:816CH         LINE#         1029
  C:8178H         LINE#         1030
  C:8178H         LINE#         1031
  C:817FH         LINE#         1032
  C:8184H         LINE#         1033
  C:8184H         LINE#         1034
  -------         ENDPROC       FUN4
  -------         PROC          FUN5
  C:8185H         LINE#         1036
  C:8185H         LINE#         1037
  C:8185H         LINE#         1038
  C:818AH         LINE#         1039
  C:8196H         LINE#         1040
  C:8196H         LINE#         1041
  C:819DH         LINE#         1042
  C:81A2H         LINE#         1043
  C:81A2H         LINE#         1044
  -------         ENDPROC       FUN5
  -------         PROC          FUN6
  C:81A3H         LINE#         1046
  C:81A3H         LINE#         1047
  C:81A3H         LINE#         1048
  C:81A8H         LINE#         1049
  C:81B4H         LINE#         1050
  C:81B4H         LINE#         1051
  C:81BBH         LINE#         1052
  C:81C0H         LINE#         1053
  C:81C0H         LINE#         1054
  -------         ENDPROC       FUN6
  -------         PROC          FUN7
  C:81C1H         LINE#         1056
  C:81C1H         LINE#         1057
  C:81C1H         LINE#         1058
  C:81C6H         LINE#         1059
  C:81D2H         LINE#         1060
  C:81D2H         LINE#         1061
  C:81D9H         LINE#         1062
  C:81DEH         LINE#         1063
  C:81DEH         LINE#         1064
  -------         ENDPROC       FUN7
  -------         PROC          FUN8
  C:81DFH         LINE#         1066
  C:81DFH         LINE#         1067
  C:81DFH         LINE#         1068
  C:81E4H         LINE#         1069
  C:81F0H         LINE#         1070
  C:81F0H         LINE#         1071
  C:81F7H         LINE#         1072
  C:81FCH         LINE#         1073
BL51 BANKED LINKER/LOCATER V6.22                                                      03/10/2016  16:30:11  PAGE 90


  C:81FCH         LINE#         1074
  -------         ENDPROC       FUN8
  -------         PROC          FUN9
  C:81FDH         LINE#         1076
  C:81FDH         LINE#         1077
  C:81FDH         LINE#         1078
  C:8202H         LINE#         1079
  C:820EH         LINE#         1080
  C:820EH         LINE#         1081
  C:8215H         LINE#         1082
  C:821AH         LINE#         1083
  C:821AH         LINE#         1084
  -------         ENDPROC       FUN9
  -------         PROC          FUN10
  C:821BH         LINE#         1086
  C:821BH         LINE#         1087
  C:821BH         LINE#         1088
  C:8220H         LINE#         1089
  C:822CH         LINE#         1090
  C:822CH         LINE#         1091
  C:8233H         LINE#         1092
  C:8238H         LINE#         1093
  C:8238H         LINE#         1094
  -------         ENDPROC       FUN10
  -------         PROC          FUN11
  C:001EH         LINE#         1096
  C:001EH         LINE#         1097
  C:001EH         LINE#         1098
  -------         ENDPROC       FUN11
  -------         PROC          FUN12
  C:003EH         LINE#         1101
  C:003EH         LINE#         1102
  C:003EH         LINE#         1103
  -------         ENDPROC       FUN12
  -------         PROC          FUN13
  C:8724H         LINE#         1106
  C:8724H         LINE#         1107
  C:8724H         LINE#         1108
  -------         ENDPROC       FUN13
  -------         PROC          FUN14
  C:000EH         LINE#         1111
  C:000EH         LINE#         1112
  C:000EH         LINE#         1113
  C:0013H         LINE#         1114
  C:0018H         LINE#         1115
  C:001AH         LINE#         1116
  -------         ENDPROC       FUN14
  -------         PROC          FUN15
  C:7573H         LINE#         1118
  C:7573H         LINE#         1119
  C:7573H         LINE#         1120
  C:7579H         LINE#         1121
  C:7579H         LINE#         1122
  C:757CH         LINE#         1123
  C:7581H         LINE#         1124
  C:7581H         LINE#         1125
  C:7589H         LINE#         1126
BL51 BANKED LINKER/LOCATER V6.22                                                      03/10/2016  16:30:11  PAGE 91


  C:7589H         LINE#         1127
  C:758FH         LINE#         1128
  C:758FH         LINE#         1129
  C:7593H         LINE#         1130
  C:7597H         LINE#         1131
  C:759BH         LINE#         1132
  C:759FH         LINE#         1133
  C:75A1H         LINE#         1135
  C:75A1H         LINE#         1136
  C:75A6H         LINE#         1137
  C:75AAH         LINE#         1138
  C:75AEH         LINE#         1139
  C:75B2H         LINE#         1140
  C:75B2H         LINE#         1141
  C:75B5H         LINE#         1142
  C:75BAH         LINE#         1143
  C:75BAH         LINE#         1144
  -------         ENDPROC       FUN15
  -------         PROC          FUN16
  C:7833H         LINE#         1147
  C:7833H         LINE#         1148
  C:7833H         LINE#         1149
  C:7839H         LINE#         1150
  C:7839H         LINE#         1151
  C:783CH         LINE#         1152
  C:7841H         LINE#         1153
  C:7841H         LINE#         1154
  C:7847H         LINE#         1155
  C:7847H         LINE#         1156
  C:784DH         LINE#         1157
  C:784DH         LINE#         1158
  C:7851H         LINE#         1159
  C:7855H         LINE#         1160
  C:7857H         LINE#         1162
  C:7857H         LINE#         1163
  C:785CH         LINE#         1164
  C:7860H         LINE#         1165
  C:7860H         LINE#         1166
  C:7863H         LINE#         1167
  C:7868H         LINE#         1168
  C:7868H         LINE#         1169
  -------         ENDPROC       FUN16
  -------         PROC          FUN17
  C:786BH         LINE#         1172
  C:786BH         LINE#         1173
  C:786BH         LINE#         1174
  C:7871H         LINE#         1175
  C:7871H         LINE#         1176
  C:7874H         LINE#         1177
  C:7879H         LINE#         1178
  C:7879H         LINE#         1179
  C:787FH         LINE#         1180
  C:787FH         LINE#         1181
  C:7885H         LINE#         1182
  C:7885H         LINE#         1183
  C:7889H         LINE#         1184
  C:788DH         LINE#         1185
BL51 BANKED LINKER/LOCATER V6.22                                                      03/10/2016  16:30:11  PAGE 92


  C:788FH         LINE#         1187
  C:788FH         LINE#         1188
  C:7894H         LINE#         1189
  C:7898H         LINE#         1190
  C:7898H         LINE#         1191
  C:789BH         LINE#         1192
  C:78A0H         LINE#         1193
  C:78A0H         LINE#         1194
  -------         ENDPROC       FUN17
  -------         PROC          FUN18
  C:7F0AH         LINE#         1197
  C:7F0AH         LINE#         1198
  C:7F0AH         LINE#         1199
  C:7F10H         LINE#         1200
  C:7F10H         LINE#         1201
  C:7F13H         LINE#         1202
  C:7F18H         LINE#         1203
  C:7F18H         LINE#         1204
  C:7F1EH         LINE#         1205
  C:7F1EH         LINE#         1206
  C:7F23H         LINE#         1207
  C:7F26H         LINE#         1208
  C:7F2BH         LINE#         1209
  C:7F2BH         LINE#         1210
  -------         ENDPROC       FUN18
  -------         PROC          FUN19
  C:7ADFH         LINE#         1213
  C:7ADFH         LINE#         1214
  C:7ADFH         LINE#         1215
  C:7AE5H         LINE#         1216
  C:7AE5H         LINE#         1217
  C:7AE8H         LINE#         1218
  C:7AEDH         LINE#         1219
  C:7AEDH         LINE#         1220
  C:7AF3H         LINE#         1221
  C:7AF3H         LINE#         1222
  C:7AF8H         LINE#         1223
  C:7AFCH         LINE#         1224
  C:7AFFH         LINE#         1225
  C:7B04H         LINE#         1226
  C:7B04H         LINE#         1227
  -------         ENDPROC       FUN19
  -------         PROC          FUN20
  -------         DO            
  D:0007H         SYMBOL        temp
  -------         ENDDO         
  C:79A5H         LINE#         1230
  C:79A5H         LINE#         1231
  C:79A5H         LINE#         1233
  C:79A8H         LINE#         1234
  C:79ACH         LINE#         1235
  C:79ACH         LINE#         1236
  C:79B1H         LINE#         1237
  C:79B1H         LINE#         1239
  C:79B1H         LINE#         1240
  C:79B7H         LINE#         1241
  C:79B7H         LINE#         1242
BL51 BANKED LINKER/LOCATER V6.22                                                      03/10/2016  16:30:11  PAGE 93


  C:79BAH         LINE#         1243
  C:79BFH         LINE#         1244
  C:79BFH         LINE#         1245
  C:79C5H         LINE#         1246
  C:79C5H         LINE#         1247
  C:79CAH         LINE#         1248
  C:79CAH         LINE#         1249
  C:79CDH         LINE#         1250
  C:79D2H         LINE#         1251
  C:79D2H         LINE#         1252
  C:79D5H         LINE#         1253
  C:79D5H         LINE#         1254
  -------         ENDPROC       FUN20
  -------         PROC          FUN21
  C:8414H         LINE#         1256
  C:8414H         LINE#         1257
  C:8414H         LINE#         1258
  C:8419H         LINE#         1259
  C:841EH         LINE#         1260
  C:8420H         LINE#         1261
  C:8422H         LINE#         1262
  C:8425H         LINE#         1263
  -------         ENDPROC       FUN21
  -------         PROC          FUN22
  C:8426H         LINE#         1265
  C:8426H         LINE#         1266
  C:8426H         LINE#         1267
  C:842BH         LINE#         1268
  C:8430H         LINE#         1269
  C:8432H         LINE#         1270
  C:8434H         LINE#         1271
  C:8437H         LINE#         1272
  -------         ENDPROC       FUN22
  -------         PROC          FUN23
  C:8438H         LINE#         1274
  C:8438H         LINE#         1275
  C:8438H         LINE#         1276
  C:843DH         LINE#         1277
  C:8442H         LINE#         1278
  C:8444H         LINE#         1279
  C:8446H         LINE#         1280
  C:8449H         LINE#         1281
  -------         ENDPROC       FUN23
  -------         PROC          FUN24
  C:844AH         LINE#         1283
  C:844AH         LINE#         1284
  C:844AH         LINE#         1285
  C:844FH         LINE#         1286
  C:8454H         LINE#         1287
  C:8456H         LINE#         1288
  C:8458H         LINE#         1289
  C:845BH         LINE#         1290
  -------         ENDPROC       FUN24
  -------         PROC          FUN25
  C:845CH         LINE#         1292
  C:845CH         LINE#         1293
  C:845CH         LINE#         1294
BL51 BANKED LINKER/LOCATER V6.22                                                      03/10/2016  16:30:11  PAGE 94


  C:8461H         LINE#         1295
  C:8466H         LINE#         1296
  C:8468H         LINE#         1297
  C:846AH         LINE#         1298
  C:846DH         LINE#         1299
  -------         ENDPROC       FUN25
  -------         PROC          FUN26
  C:846EH         LINE#         1301
  C:846EH         LINE#         1302
  C:846EH         LINE#         1303
  C:8473H         LINE#         1304
  C:8478H         LINE#         1305
  C:847AH         LINE#         1306
  C:847CH         LINE#         1307
  C:847FH         LINE#         1308
  -------         ENDPROC       FUN26
  -------         PROC          FUN27
  C:8480H         LINE#         1310
  C:8480H         LINE#         1311
  C:8480H         LINE#         1312
  C:8485H         LINE#         1313
  C:848AH         LINE#         1314
  C:848CH         LINE#         1315
  C:848EH         LINE#         1316
  C:8491H         LINE#         1317
  -------         ENDPROC       FUN27
  -------         PROC          FUN28
  C:8492H         LINE#         1319
  C:8492H         LINE#         1320
  C:8492H         LINE#         1321
  C:8497H         LINE#         1322
  C:849CH         LINE#         1323
  C:849EH         LINE#         1324
  C:84A0H         LINE#         1325
  C:84A3H         LINE#         1326
  -------         ENDPROC       FUN28
  -------         PROC          FUN29
  C:8729H         LINE#         1328
  C:8729H         LINE#         1329
  C:8729H         LINE#         1330
  -------         ENDPROC       FUN29
  -------         PROC          FUN30
  C:872EH         LINE#         1333
  C:872EH         LINE#         1334
  C:872EH         LINE#         1335
  -------         ENDPROC       FUN30
  -------         PROC          FUN31
  -------         DO            
  D:0007H         SYMBOL        temp
  -------         ENDDO         
  C:8581H         LINE#         1338
  C:8581H         LINE#         1339
  C:8581H         LINE#         1340
  C:8583H         LINE#         1341
  C:8586H         LINE#         1342
  -------         ENDPROC       FUN31
  -------         PROC          FUN32
BL51 BANKED LINKER/LOCATER V6.22                                                      03/10/2016  16:30:11  PAGE 95


  -------         DO            
  D:0007H         SYMBOL        temp
  -------         ENDDO         
  C:8589H         LINE#         1345
  C:8589H         LINE#         1346
  C:8589H         LINE#         1347
  C:858BH         LINE#         1348
  C:858EH         LINE#         1349
  -------         ENDPROC       FUN32
  -------         PROC          FUN33
  C:8733H         LINE#         1352
  C:8733H         LINE#         1353
  C:8733H         LINE#         1354
  -------         ENDPROC       FUN33
  -------         PROC          FUN34
  C:8738H         LINE#         1357
  C:8738H         LINE#         1358
  C:8738H         LINE#         1359
  -------         ENDPROC       FUN34
  -------         PROC          FUN35
  C:873DH         LINE#         1362
  C:873DH         LINE#         1363
  C:873DH         LINE#         1364
  -------         ENDPROC       FUN35
  -------         PROC          FUN36
  C:8742H         LINE#         1367
  C:8742H         LINE#         1368
  C:8742H         LINE#         1369
  -------         ENDPROC       FUN36
  -------         PROC          FUN37
  C:8747H         LINE#         1372
  C:8747H         LINE#         1373
  C:8747H         LINE#         1374
  -------         ENDPROC       FUN37
  -------         PROC          FUN38
  C:874CH         LINE#         1377
  C:874CH         LINE#         1378
  C:874CH         LINE#         1379
  -------         ENDPROC       FUN38
  -------         PROC          FUN39
  C:8751H         LINE#         1382
  C:8751H         LINE#         1383
  C:8751H         LINE#         1384
  -------         ENDPROC       FUN39
  -------         PROC          FUN40
  C:8756H         LINE#         1387
  C:8756H         LINE#         1388
  C:8756H         LINE#         1389
  -------         ENDPROC       FUN40
  -------         PROC          FUN41
  C:875BH         LINE#         1392
  C:875BH         LINE#         1393
  C:875BH         LINE#         1394
  -------         ENDPROC       FUN41
  -------         PROC          FUN42
  C:8515H         LINE#         1397
  C:8515H         LINE#         1398
BL51 BANKED LINKER/LOCATER V6.22                                                      03/10/2016  16:30:11  PAGE 96


  C:8515H         LINE#         1399
  C:851AH         LINE#         1400
  C:8522H         LINE#         1401
  -------         ENDPROC       FUN42
  -------         PROC          FUN43
  C:8760H         LINE#         1403
  C:8760H         LINE#         1404
  C:8760H         LINE#         1405
  -------         ENDPROC       FUN43
  -------         PROC          FUN44
  C:8765H         LINE#         1408
  C:8765H         LINE#         1409
  C:8765H         LINE#         1410
  -------         ENDPROC       FUN44
  -------         PROC          FUN45
  C:876AH         LINE#         1413
  C:876AH         LINE#         1414
  C:876AH         LINE#         1415
  -------         ENDPROC       FUN45
  -------         PROC          FUN46
  -------         DO            
  D:0006H         SYMBOL        measure_sync_saved_temp
  D:0004H         SYMBOL        show_temp
  -------         ENDDO         
  C:828FH         LINE#         1418
  C:828FH         LINE#         1419
  C:828FH         LINE#         1420
  C:8292H         LINE#         1421
  C:8294H         LINE#         1423
  C:8297H         LINE#         1424
  C:82A6H         LINE#         1425
  -------         ENDPROC       FUN46
  -------         PROC          FUN47
  -------         DO            
  D:0007H         SYMBOL        temp
  -------         ENDDO         
  C:8591H         LINE#         1433
  C:8591H         LINE#         1434
  C:8591H         LINE#         1435
  C:8593H         LINE#         1436
  C:8596H         LINE#         1437
  -------         ENDPROC       FUN47
  -------         PROC          FUN48
  -------         DO            
  D:0007H         SYMBOL        temp
  -------         ENDDO         
  C:8599H         LINE#         1440
  C:8599H         LINE#         1441
  C:8599H         LINE#         1442
  C:859BH         LINE#         1443
  C:859EH         LINE#         1444
  -------         ENDPROC       FUN48
  -------         PROC          FUN49
  -------         DO            
  X:0588H         SYMBOL        temp
  -------         ENDDO         
  C:739FH         LINE#         1447
BL51 BANKED LINKER/LOCATER V6.22                                                      03/10/2016  16:30:11  PAGE 97


  C:739FH         LINE#         1448
  C:739FH         LINE#         1450
  C:73A7H         LINE#         1451
  C:73ACH         LINE#         1452
  C:73ACH         LINE#         1453
  C:73B3H         LINE#         1454
  C:73B3H         LINE#         1455
  C:73B3H         LINE#         1456
  C:73B5H         LINE#         1457
  C:73BBH         LINE#         1458
  C:73BBH         LINE#         1459
  C:73CCH         LINE#         1460
  C:73CEH         LINE#         1462
  C:73CEH         LINE#         1463
  C:73D3H         LINE#         1464
  C:73D3H         LINE#         1465
  C:73D6H         LINE#         1466
  C:73D6H         LINE#         1467
  C:73DDH         LINE#         1468
  C:73DDH         LINE#         1469
  C:73DDH         LINE#         1470
  C:73E6H         LINE#         1471
  C:73E6H         LINE#         1472
  C:73E9H         LINE#         1473
  C:73ECH         LINE#         1474
  C:73ECH         LINE#         1475
  C:73EEH         LINE#         1476
  -------         ENDPROC       FUN49
  -------         PROC          FUN50
  C:8046H         LINE#         1478
  C:8046H         LINE#         1479
  C:8046H         LINE#         1480
  C:804CH         LINE#         1481
  C:804CH         LINE#         1482
  C:804FH         LINE#         1483
  C:8054H         LINE#         1484
  C:8054H         LINE#         1485
  C:805AH         LINE#         1486
  C:805AH         LINE#         1487
  C:805FH         LINE#         1488
  C:8062H         LINE#         1489
  C:8067H         LINE#         1490
  C:8067H         LINE#         1491
  -------         ENDPROC       FUN50
  -------         PROC          FUN51
  C:8068H         LINE#         1493
  C:8068H         LINE#         1494
  C:8068H         LINE#         1495
  C:806EH         LINE#         1496
  C:806EH         LINE#         1497
  C:8071H         LINE#         1498
  C:8076H         LINE#         1499
  C:8076H         LINE#         1500
  C:807CH         LINE#         1501
  C:807CH         LINE#         1502
  C:8081H         LINE#         1503
  C:8084H         LINE#         1504
BL51 BANKED LINKER/LOCATER V6.22                                                      03/10/2016  16:30:11  PAGE 98


  C:8089H         LINE#         1505
  C:8089H         LINE#         1506
  -------         ENDPROC       FUN51
  -------         PROC          FUN52
  C:808AH         LINE#         1508
  C:808AH         LINE#         1509
  C:808AH         LINE#         1510
  C:8090H         LINE#         1511
  C:8090H         LINE#         1512
  C:8093H         LINE#         1513
  C:8098H         LINE#         1514
  C:8098H         LINE#         1515
  C:809EH         LINE#         1516
  C:809EH         LINE#         1517
  C:80A3H         LINE#         1518
  C:80A6H         LINE#         1519
  C:80ABH         LINE#         1520
  C:80ABH         LINE#         1521
  -------         ENDPROC       FUN52
  -------         PROC          FUN53
  C:8239H         LINE#         1523
  C:8239H         LINE#         1524
  C:8239H         LINE#         1525
  C:823FH         LINE#         1526
  C:823FH         LINE#         1527
  C:8242H         LINE#         1528
  C:8247H         LINE#         1529
  C:8247H         LINE#         1530
  C:824DH         LINE#         1531
  C:824DH         LINE#         1532
  C:824DH         LINE#         1533
  C:8250H         LINE#         1534
  C:8255H         LINE#         1535
  C:8255H         LINE#         1536
  -------         ENDPROC       FUN53
  -------         PROC          FUN54
  C:7B07H         LINE#         1538
  C:7B07H         LINE#         1539
  C:7B07H         LINE#         1540
  C:7B0DH         LINE#         1541
  C:7B0DH         LINE#         1542
  C:7B16H         LINE#         1543
  C:7B1BH         LINE#         1544
  C:7B1BH         LINE#         1545
  C:7B21H         LINE#         1546
  C:7B21H         LINE#         1547
  C:7B26H         LINE#         1548
  C:7B29H         LINE#         1549
  C:7B2EH         LINE#         1550
  C:7B2EH         LINE#         1551
  -------         ENDPROC       FUN54
  -------         PROC          FUN55
  C:7B2FH         LINE#         1553
  C:7B2FH         LINE#         1554
  C:7B2FH         LINE#         1555
  C:7B35H         LINE#         1556
  C:7B35H         LINE#         1557
BL51 BANKED LINKER/LOCATER V6.22                                                      03/10/2016  16:30:11  PAGE 99


  C:7B3EH         LINE#         1558
  C:7B43H         LINE#         1559
  C:7B43H         LINE#         1560
  C:7B49H         LINE#         1561
  C:7B49H         LINE#         1562
  C:7B4EH         LINE#         1563
  C:7B51H         LINE#         1564
  C:7B56H         LINE#         1565
  C:7B56H         LINE#         1566
  -------         ENDPROC       FUN55
  -------         PROC          FUN56
  C:7B57H         LINE#         1568
  C:7B57H         LINE#         1569
  C:7B57H         LINE#         1570
  C:7B5DH         LINE#         1571
  C:7B5DH         LINE#         1572
  C:7B66H         LINE#         1573
  C:7B6BH         LINE#         1574
  C:7B6BH         LINE#         1575
  C:7B71H         LINE#         1576
  C:7B71H         LINE#         1577
  C:7B76H         LINE#         1578
  C:7B79H         LINE#         1579
  C:7B7EH         LINE#         1580
  C:7B7EH         LINE#         1581
  -------         ENDPROC       FUN56
  -------         PROC          FUN57
  C:7F51H         LINE#         1583
  C:7F51H         LINE#         1584
  C:7F51H         LINE#         1585
  C:7F57H         LINE#         1586
  C:7F57H         LINE#         1587
  C:7F60H         LINE#         1588
  C:7F65H         LINE#         1589
  C:7F65H         LINE#         1590
  C:7F6BH         LINE#         1591
  C:7F6BH         LINE#         1592
  C:7F6BH         LINE#         1593
  C:7F6EH         LINE#         1594
  C:7F73H         LINE#         1595
  C:7F73H         LINE#         1596
  -------         ENDPROC       FUN57
  -------         PROC          FUN58
  C:7B7FH         LINE#         1598
  C:7B7FH         LINE#         1599
  C:7B7FH         LINE#         1600
  C:7B85H         LINE#         1601
  C:7B85H         LINE#         1602
  C:7B8EH         LINE#         1603
  C:7B93H         LINE#         1604
  C:7B93H         LINE#         1605
  C:7B99H         LINE#         1606
  C:7B99H         LINE#         1607
  C:7B9EH         LINE#         1608
  C:7BA1H         LINE#         1609
  C:7BA6H         LINE#         1610
  C:7BA6H         LINE#         1611
BL51 BANKED LINKER/LOCATER V6.22                                                      03/10/2016  16:30:11  PAGE 100


  -------         ENDPROC       FUN58
  -------         PROC          FUN59
  C:7BA7H         LINE#         1613
  C:7BA7H         LINE#         1614
  C:7BA7H         LINE#         1615
  C:7BADH         LINE#         1616
  C:7BADH         LINE#         1617
  C:7BB6H         LINE#         1618
  C:7BBBH         LINE#         1619
  C:7BBBH         LINE#         1620
  C:7BC1H         LINE#         1621
  C:7BC1H         LINE#         1622
  C:7BC6H         LINE#         1623
  C:7BC9H         LINE#         1624
  C:7BCEH         LINE#         1625
  C:7BCEH         LINE#         1626
  -------         ENDPROC       FUN59
  -------         PROC          FUN60
  C:7BCFH         LINE#         1628
  C:7BCFH         LINE#         1629
  C:7BCFH         LINE#         1630
  C:7BD5H         LINE#         1631
  C:7BD5H         LINE#         1632
  C:7BDEH         LINE#         1633
  C:7BE3H         LINE#         1634
  C:7BE3H         LINE#         1635
  C:7BE9H         LINE#         1636
  C:7BE9H         LINE#         1637
  C:7BEEH         LINE#         1638
  C:7BF1H         LINE#         1639
  C:7BF6H         LINE#         1640
  C:7BF6H         LINE#         1641
  -------         ENDPROC       FUN60
  -------         PROC          FUN61
  C:7F74H         LINE#         1643
  C:7F74H         LINE#         1644
  C:7F74H         LINE#         1645
  C:7F7AH         LINE#         1646
  C:7F7AH         LINE#         1647
  C:7F83H         LINE#         1648
  C:7F88H         LINE#         1649
  C:7F88H         LINE#         1650
  C:7F8EH         LINE#         1651
  C:7F8EH         LINE#         1652
  C:7F8EH         LINE#         1653
  C:7F91H         LINE#         1654
  C:7F96H         LINE#         1655
  C:7F96H         LINE#         1656
  -------         ENDPROC       FUN61
  -------         PROC          FUN62
  C:7BF7H         LINE#         1658
  C:7BF7H         LINE#         1659
  C:7BF7H         LINE#         1660
  C:7BFDH         LINE#         1661
  C:7BFDH         LINE#         1662
  C:7C06H         LINE#         1663
  C:7C0BH         LINE#         1664
BL51 BANKED LINKER/LOCATER V6.22                                                      03/10/2016  16:30:11  PAGE 101


  C:7C0BH         LINE#         1665
  C:7C11H         LINE#         1666
  C:7C11H         LINE#         1667
  C:7C16H         LINE#         1668
  C:7C19H         LINE#         1669
  C:7C1EH         LINE#         1670
  C:7C1EH         LINE#         1671
  -------         ENDPROC       FUN62
  -------         PROC          FUN63
  C:7C1FH         LINE#         1673
  C:7C1FH         LINE#         1674
  C:7C1FH         LINE#         1675
  C:7C25H         LINE#         1676
  C:7C25H         LINE#         1677
  C:7C2EH         LINE#         1678
  C:7C33H         LINE#         1679
  C:7C33H         LINE#         1680
  C:7C39H         LINE#         1681
  C:7C39H         LINE#         1682
  C:7C3EH         LINE#         1683
  C:7C41H         LINE#         1684
  C:7C46H         LINE#         1685
  C:7C46H         LINE#         1686
  -------         ENDPROC       FUN63
  -------         PROC          FUN64
  C:7C47H         LINE#         1688
  C:7C47H         LINE#         1689
  C:7C47H         LINE#         1690
  C:7C4DH         LINE#         1691
  C:7C4DH         LINE#         1692
  C:7C56H         LINE#         1693
  C:7C5BH         LINE#         1694
  C:7C5BH         LINE#         1695
  C:7C61H         LINE#         1696
  C:7C61H         LINE#         1697
  C:7C66H         LINE#         1698
  C:7C69H         LINE#         1699
  C:7C6EH         LINE#         1700
  C:7C6EH         LINE#         1701
  -------         ENDPROC       FUN64
  -------         PROC          FUN65
  C:7F97H         LINE#         1703
  C:7F97H         LINE#         1704
  C:7F97H         LINE#         1705
  C:7F9DH         LINE#         1706
  C:7F9DH         LINE#         1707
  C:7FA6H         LINE#         1708
  C:7FABH         LINE#         1709
  C:7FABH         LINE#         1710
  C:7FB1H         LINE#         1711
  C:7FB1H         LINE#         1712
  C:7FB1H         LINE#         1713
  C:7FB4H         LINE#         1714
  C:7FB9H         LINE#         1715
  C:7FB9H         LINE#         1716
  -------         ENDPROC       FUN65
  -------         PROC          FUN66
BL51 BANKED LINKER/LOCATER V6.22                                                      03/10/2016  16:30:11  PAGE 102


  C:7C6FH         LINE#         1718
  C:7C6FH         LINE#         1719
  C:7C6FH         LINE#         1720
  C:7C75H         LINE#         1721
  C:7C75H         LINE#         1722
  C:7C7EH         LINE#         1723
  C:7C83H         LINE#         1724
  C:7C83H         LINE#         1725
  C:7C89H         LINE#         1726
  C:7C89H         LINE#         1727
  C:7C8EH         LINE#         1728
  C:7C91H         LINE#         1729
  C:7C96H         LINE#         1730
  C:7C96H         LINE#         1731
  -------         ENDPROC       FUN66
  -------         PROC          FUN67
  C:7C97H         LINE#         1733
  C:7C97H         LINE#         1734
  C:7C97H         LINE#         1735
  C:7C9DH         LINE#         1736
  C:7C9DH         LINE#         1737
  C:7CA6H         LINE#         1738
  C:7CABH         LINE#         1739
  C:7CABH         LINE#         1740
  C:7CB1H         LINE#         1741
  C:7CB1H         LINE#         1742
  C:7CB6H         LINE#         1743
  C:7CB9H         LINE#         1744
  C:7CBEH         LINE#         1745
  C:7CBEH         LINE#         1746
  -------         ENDPROC       FUN67
  -------         PROC          FUN68
  C:7CBFH         LINE#         1748
  C:7CBFH         LINE#         1749
  C:7CBFH         LINE#         1750
  C:7CC5H         LINE#         1751
  C:7CC5H         LINE#         1752
  C:7CCEH         LINE#         1753
  C:7CD3H         LINE#         1754
  C:7CD3H         LINE#         1755
  C:7CD9H         LINE#         1756
  C:7CD9H         LINE#         1757
  C:7CDEH         LINE#         1758
  C:7CE1H         LINE#         1759
  C:7CE6H         LINE#         1760
  C:7CE6H         LINE#         1761
  -------         ENDPROC       FUN68
  -------         PROC          FUN69
  C:7FBAH         LINE#         1763
  C:7FBAH         LINE#         1764
  C:7FBAH         LINE#         1765
  C:7FC0H         LINE#         1766
  C:7FC0H         LINE#         1767
  C:7FC9H         LINE#         1768
  C:7FCEH         LINE#         1769
  C:7FCEH         LINE#         1770
  C:7FD4H         LINE#         1771
BL51 BANKED LINKER/LOCATER V6.22                                                      03/10/2016  16:30:11  PAGE 103


  C:7FD4H         LINE#         1772
  C:7FD4H         LINE#         1773
  C:7FD7H         LINE#         1774
  C:7FDCH         LINE#         1775
  C:7FDCH         LINE#         1776
  -------         ENDPROC       FUN69
  -------         PROC          FUN70
  C:7CE7H         LINE#         1778
  C:7CE7H         LINE#         1779
  C:7CE7H         LINE#         1780
  C:7CEDH         LINE#         1781
  C:7CEDH         LINE#         1782
  C:7CF6H         LINE#         1783
  C:7CFBH         LINE#         1784
  C:7CFBH         LINE#         1785
  C:7D01H         LINE#         1786
  C:7D01H         LINE#         1787
  C:7D06H         LINE#         1788
  C:7D09H         LINE#         1789
  C:7D0EH         LINE#         1790
  C:7D0EH         LINE#         1791
  -------         ENDPROC       FUN70
  -------         PROC          FUN71
  C:7D0FH         LINE#         1793
  C:7D0FH         LINE#         1794
  C:7D0FH         LINE#         1795
  C:7D15H         LINE#         1796
  C:7D15H         LINE#         1797
  C:7D1EH         LINE#         1798
  C:7D23H         LINE#         1799
  C:7D23H         LINE#         1800
  C:7D29H         LINE#         1801
  C:7D29H         LINE#         1802
  C:7D2EH         LINE#         1803
  C:7D31H         LINE#         1804
  C:7D36H         LINE#         1805
  C:7D36H         LINE#         1806
  -------         ENDPROC       FUN71
  -------         PROC          FUN72
  C:7D37H         LINE#         1808
  C:7D37H         LINE#         1809
  C:7D37H         LINE#         1810
  C:7D3DH         LINE#         1811
  C:7D3DH         LINE#         1812
  C:7D46H         LINE#         1813
  C:7D4BH         LINE#         1814
  C:7D4BH         LINE#         1815
  C:7D51H         LINE#         1816
  C:7D51H         LINE#         1817
  C:7D56H         LINE#         1818
  C:7D59H         LINE#         1819
  C:7D5EH         LINE#         1820
  C:7D5EH         LINE#         1821
  -------         ENDPROC       FUN72
  -------         PROC          FUN73
  C:7FDDH         LINE#         1823
  C:7FDDH         LINE#         1824
BL51 BANKED LINKER/LOCATER V6.22                                                      03/10/2016  16:30:11  PAGE 104


  C:7FDDH         LINE#         1825
  C:7FE3H         LINE#         1826
  C:7FE3H         LINE#         1827
  C:7FECH         LINE#         1828
  C:7FF1H         LINE#         1829
  C:7FF1H         LINE#         1830
  C:7FF7H         LINE#         1831
  C:7FF7H         LINE#         1832
  C:7FF7H         LINE#         1833
  C:7FFAH         LINE#         1834
  C:7FFFH         LINE#         1835
  C:7FFFH         LINE#         1836
  -------         ENDPROC       FUN73
  -------         PROC          FUN74
  C:7D5FH         LINE#         1838
  C:7D5FH         LINE#         1839
  C:7D5FH         LINE#         1840
  C:7D65H         LINE#         1841
  C:7D65H         LINE#         1842
  C:7D6EH         LINE#         1843
  C:7D73H         LINE#         1844
  C:7D73H         LINE#         1845
  C:7D79H         LINE#         1846
  C:7D79H         LINE#         1847
  C:7D7EH         LINE#         1848
  C:7D81H         LINE#         1849
  C:7D86H         LINE#         1850
  C:7D86H         LINE#         1851
  -------         ENDPROC       FUN74
  -------         PROC          FUN75
  C:7D87H         LINE#         1853
  C:7D87H         LINE#         1854
  C:7D87H         LINE#         1855
  C:7D8DH         LINE#         1856
  C:7D8DH         LINE#         1857
  C:7D96H         LINE#         1858
  C:7D9BH         LINE#         1859
  C:7D9BH         LINE#         1860
  C:7DA1H         LINE#         1861
  C:7DA1H         LINE#         1862
  C:7DA6H         LINE#         1863
  C:7DA9H         LINE#         1864
  C:7DAEH         LINE#         1865
  C:7DAEH         LINE#         1866
  -------         ENDPROC       FUN75
  -------         PROC          FUN76
  C:7DAFH         LINE#         1868
  C:7DAFH         LINE#         1869
  C:7DAFH         LINE#         1870
  C:7DB5H         LINE#         1871
  C:7DB5H         LINE#         1872
  C:7DBEH         LINE#         1873
  C:7DC3H         LINE#         1874
  C:7DC3H         LINE#         1875
  C:7DC9H         LINE#         1876
  C:7DC9H         LINE#         1877
  C:7DCEH         LINE#         1878
BL51 BANKED LINKER/LOCATER V6.22                                                      03/10/2016  16:30:11  PAGE 105


  C:7DD1H         LINE#         1879
  C:7DD6H         LINE#         1880
  C:7DD6H         LINE#         1881
  -------         ENDPROC       FUN76
  -------         PROC          FUN77
  C:8000H         LINE#         1883
  C:8000H         LINE#         1884
  C:8000H         LINE#         1885
  C:8006H         LINE#         1886
  C:8006H         LINE#         1887
  C:800FH         LINE#         1888
  C:8014H         LINE#         1889
  C:8014H         LINE#         1890
  C:801AH         LINE#         1891
  C:801AH         LINE#         1892
  C:801AH         LINE#         1893
  C:801DH         LINE#         1894
  C:8022H         LINE#         1895
  C:8022H         LINE#         1896
  -------         ENDPROC       FUN77
  -------         PROC          FUN78
  C:7DD7H         LINE#         1898
  C:7DD7H         LINE#         1899
  C:7DD7H         LINE#         1900
  C:7DDDH         LINE#         1901
  C:7DDDH         LINE#         1902
  C:7DE6H         LINE#         1903
  C:7DEBH         LINE#         1904
  C:7DEBH         LINE#         1905
  C:7DF1H         LINE#         1906
  C:7DF1H         LINE#         1907
  C:7DF6H         LINE#         1908
  C:7DF9H         LINE#         1909
  C:7DFEH         LINE#         1910
  C:7DFEH         LINE#         1911
  -------         ENDPROC       FUN78
  -------         PROC          FUN79
  C:7DFFH         LINE#         1913
  C:7DFFH         LINE#         1914
  C:7DFFH         LINE#         1915
  C:7E05H         LINE#         1916
  C:7E05H         LINE#         1917
  C:7E0EH         LINE#         1918
  C:7E13H         LINE#         1919
  C:7E13H         LINE#         1920
  C:7E19H         LINE#         1921
  C:7E19H         LINE#         1922
  C:7E1EH         LINE#         1923
  C:7E21H         LINE#         1924
  C:7E26H         LINE#         1925
  C:7E26H         LINE#         1926
  -------         ENDPROC       FUN79
  -------         PROC          FUN80
  C:7E27H         LINE#         1928
  C:7E27H         LINE#         1929
  C:7E27H         LINE#         1930
  C:7E2DH         LINE#         1931
BL51 BANKED LINKER/LOCATER V6.22                                                      03/10/2016  16:30:11  PAGE 106


  C:7E2DH         LINE#         1932
  C:7E36H         LINE#         1933
  C:7E3BH         LINE#         1934
  C:7E3BH         LINE#         1935
  C:7E41H         LINE#         1936
  C:7E41H         LINE#         1937
  C:7E46H         LINE#         1938
  C:7E49H         LINE#         1939
  C:7E4EH         LINE#         1940
  C:7E4EH         LINE#         1941
  -------         ENDPROC       FUN80
  -------         PROC          FUN81
  C:8023H         LINE#         1943
  C:8023H         LINE#         1944
  C:8023H         LINE#         1945
  C:8029H         LINE#         1946
  C:8029H         LINE#         1947
  C:8032H         LINE#         1948
  C:8037H         LINE#         1949
  C:8037H         LINE#         1950
  C:803DH         LINE#         1951
  C:803DH         LINE#         1952
  C:803DH         LINE#         1953
  C:8040H         LINE#         1954
  C:8045H         LINE#         1955
  C:8045H         LINE#         1956
  -------         ENDPROC       FUN81
  -------         PROC          FUN82
  -------         DO            
  D:0007H         SYMBOL        temp
  -------         ENDDO         
  C:85A1H         LINE#         1958
  C:85A1H         LINE#         1959
  C:85A1H         LINE#         1960
  C:85A3H         LINE#         1961
  C:85A6H         LINE#         1962
  -------         ENDPROC       FUN82
  -------         PROC          FUN83
  -------         DO            
  D:0007H         SYMBOL        temp
  -------         ENDDO         
  C:85A9H         LINE#         1965
  C:85A9H         LINE#         1966
  C:85A9H         LINE#         1967
  C:85ABH         LINE#         1968
  C:85AEH         LINE#         1969
  -------         ENDPROC       FUN83
  -------         PROC          FUN84
  -------         DO            
  D:0007H         SYMBOL        temp
  -------         ENDDO         
  C:85B1H         LINE#         1972
  C:85B1H         LINE#         1973
  C:85B1H         LINE#         1974
  C:85B3H         LINE#         1975
  C:85B6H         LINE#         1976
  -------         ENDPROC       FUN84
BL51 BANKED LINKER/LOCATER V6.22                                                      03/10/2016  16:30:11  PAGE 107


  -------         PROC          FUN85
  -------         DO            
  D:0007H         SYMBOL        temp
  -------         ENDDO         
  C:85B9H         LINE#         1979
  C:85B9H         LINE#         1980
  C:85B9H         LINE#         1981
  C:85BBH         LINE#         1982
  C:85BEH         LINE#         1983
  -------         ENDPROC       FUN85
  -------         PROC          FUN86
  -------         DO            
  D:0007H         SYMBOL        temp
  -------         ENDDO         
  C:85C1H         LINE#         1986
  C:85C1H         LINE#         1987
  C:85C1H         LINE#         1988
  C:85C3H         LINE#         1989
  C:85C6H         LINE#         1990
  -------         ENDPROC       FUN86
  -------         PROC          FUN87
  -------         DO            
  X:0588H         SYMBOL        temp
  -------         ENDDO         
  C:8256H         LINE#         1993
  C:8256H         LINE#         1994
  C:8256H         LINE#         1995
  C:825BH         LINE#         1996
  C:8263H         LINE#         1997
  C:826BH         LINE#         1998
  -------         ENDPROC       FUN87
  -------         PROC          FUN88
  -------         DO            
  D:0007H         SYMBOL        temp
  -------         ENDDO         
  C:85C9H         LINE#         2001
  C:85C9H         LINE#         2002
  C:85C9H         LINE#         2003
  C:85CBH         LINE#         2004
  C:85CEH         LINE#         2005
  -------         ENDPROC       FUN88
  -------         PROC          FUN89
  -------         DO            
  X:0588H         SYMBOL        temp
  -------         ENDDO         
  C:7E9CH         LINE#         2008
  C:7E9CH         LINE#         2009
  C:7E9CH         LINE#         2010
  C:7EA1H         LINE#         2011
  C:7EA9H         LINE#         2012
  C:7EAEH         LINE#         2013
  C:7EAEH         LINE#         2014
  C:7EB3H         LINE#         2015
  C:7EB3H         LINE#         2017
  C:7EBAH         LINE#         2018
  C:7EBAH         LINE#         2019
  C:7EBDH         LINE#         2020
BL51 BANKED LINKER/LOCATER V6.22                                                      03/10/2016  16:30:11  PAGE 108


  C:7EBDH         LINE#         2023
  C:7EBDH         LINE#         2024
  C:7EC0H         LINE#         2025
  C:7EC0H         LINE#         2026
  -------         ENDPROC       FUN89
  -------         PROC          FUN90
  -------         DO            
  D:0007H         SYMBOL        temp
  -------         ENDDO         
  C:85D1H         LINE#         2028
  C:85D1H         LINE#         2029
  C:85D1H         LINE#         2030
  C:85D3H         LINE#         2031
  C:85D6H         LINE#         2032
  -------         ENDPROC       FUN90
  -------         PROC          FUN91
  -------         DO            
  D:0007H         SYMBOL        temp
  -------         ENDDO         
  C:85D9H         LINE#         2035
  C:85D9H         LINE#         2036
  C:85D9H         LINE#         2037
  C:85DBH         LINE#         2038
  C:85DEH         LINE#         2039
  -------         ENDPROC       FUN91
  -------         PROC          FUN92
  -------         DO            
  D:0007H         SYMBOL        temp
  -------         ENDDO         
  C:85E1H         LINE#         2042
  C:85E1H         LINE#         2043
  C:85E1H         LINE#         2044
  C:85E3H         LINE#         2045
  C:85E6H         LINE#         2046
  -------         ENDPROC       FUN92
  -------         PROC          FUN93
  -------         DO            
  X:0588H         SYMBOL        temp
  -------         ENDDO         
  C:7787H         LINE#         2049
  C:7787H         LINE#         2050
  C:7787H         LINE#         2051
  C:778CH         LINE#         2052
  C:7794H         LINE#         2053
  C:7797H         LINE#         2054
  C:77A3H         LINE#         2055
  C:77A3H         LINE#         2056
  C:77A6H         LINE#         2057
  C:77AEH         LINE#         2058
  C:77B4H         LINE#         2059
  C:77B4H         LINE#         2060
  C:77BBH         LINE#         2062
  C:77C0H         LINE#         2063
  C:77C0H         LINE#         2064
  C:77C0H         LINE#         2065
  -------         ENDPROC       FUN93
  -------         PROC          FUN94
BL51 BANKED LINKER/LOCATER V6.22                                                      03/10/2016  16:30:11  PAGE 109


  -------         DO            
  X:0588H         SYMBOL        temp
  -------         ENDDO         
  C:78A3H         LINE#         2067
  C:78A3H         LINE#         2068
  C:78A3H         LINE#         2069
  C:78A8H         LINE#         2070
  C:78B0H         LINE#         2071
  C:78B3H         LINE#         2072
  C:78B9H         LINE#         2073
  C:78B9H         LINE#         2074
  C:78C6H         LINE#         2075
  C:78C6H         LINE#         2076
  C:78CCH         LINE#         2077
  C:78CCH         LINE#         2078
  C:78D3H         LINE#         2079
  C:78D8H         LINE#         2080
  C:78D8H         LINE#         2081
  -------         ENDPROC       FUN94
  -------         PROC          FUN95
  -------         DO            
  X:0588H         SYMBOL        Two_Menu_F6_E1_temp
  X:0589H         SYMBOL        Two_Menu_F6_E8_temp
  -------         ENDDO         
  C:748CH         LINE#         2083
  C:748CH         LINE#         2084
  C:748CH         LINE#         2085
  C:7491H         LINE#         2086
  C:7493H         LINE#         2087
  C:749BH         LINE#         2088
  C:74A3H         LINE#         2092
  C:74AAH         LINE#         2093
  C:74AAH         LINE#         2094
  C:74ADH         LINE#         2095
  C:74ADH         LINE#         2096
  C:74B4H         LINE#         2097
  C:74B4H         LINE#         2098
  C:74B4H         LINE#         2099
  C:74B6H         LINE#         2100
  C:74BCH         LINE#         2101
  C:74BCH         LINE#         2102
  C:74BEH         LINE#         2103
  C:74BFH         LINE#         2105
  C:74BFH         LINE#         2106
  C:74C5H         LINE#         2107
  C:74C5H         LINE#         2108
  C:74C7H         LINE#         2109
  C:74CCH         LINE#         2110
  C:74CCH         LINE#         2111
  C:74D2H         LINE#         2112
  C:74D2H         LINE#         2113
  C:74D4H         LINE#         2114
  C:74D9H         LINE#         2115
  C:74D9H         LINE#         2116
  C:74D9H         LINE#         2118
  -------         ENDPROC       FUN95
  -------         PROC          FUN96
BL51 BANKED LINKER/LOCATER V6.22                                                      03/10/2016  16:30:11  PAGE 110


  C:876FH         LINE#         2120
  C:876FH         LINE#         2121
  C:876FH         LINE#         2122
  -------         ENDPROC       FUN96
  -------         PROC          FUN97
  -------         DO            
  D:0007H         SYMBOL        temp
  -------         ENDDO         
  C:85E9H         LINE#         2125
  C:85E9H         LINE#         2126
  C:85E9H         LINE#         2127
  C:85EBH         LINE#         2128
  C:85EEH         LINE#         2129
  -------         ENDPROC       FUN97
  -------         PROC          FUN98
  C:8774H         LINE#         2132
  C:8774H         LINE#         2133
  C:8774H         LINE#         2134
  -------         ENDPROC       FUN98
  -------         PROC          FUN99
  -------         DO            
  D:0007H         SYMBOL        temp
  -------         ENDDO         
  C:85F1H         LINE#         2137
  C:85F1H         LINE#         2138
  C:85F1H         LINE#         2139
  C:85F3H         LINE#         2140
  C:85F6H         LINE#         2141
  -------         ENDPROC       FUN99
  -------         PROC          FUN100
  C:8779H         LINE#         2144
  C:8779H         LINE#         2145
  C:8779H         LINE#         2146
  -------         ENDPROC       FUN100
  -------         PROC          FUN101
  -------         DO            
  D:0007H         SYMBOL        temp
  -------         ENDDO         
  C:85F9H         LINE#         2149
  C:85F9H         LINE#         2150
  C:85F9H         LINE#         2151
  C:85FBH         LINE#         2152
  C:85FEH         LINE#         2153
  -------         ENDPROC       FUN101
  -------         PROC          FUN102
  C:877EH         LINE#         2156
  C:877EH         LINE#         2157
  C:877EH         LINE#         2158
  -------         ENDPROC       FUN102
  -------         PROC          FUN103
  C:0026H         LINE#         2161
  C:0026H         LINE#         2162
  C:0026H         LINE#         2163
  C:002BH         LINE#         2164
  C:0032H         LINE#         2165
  C:0036H         LINE#         2166
  C:003AH         LINE#         2167
BL51 BANKED LINKER/LOCATER V6.22                                                      03/10/2016  16:30:11  PAGE 111


  -------         ENDPROC       FUN103
  -------         PROC          FUN104
  C:84A4H         LINE#         2169
  C:84A4H         LINE#         2170
  C:84A4H         LINE#         2171
  C:84A9H         LINE#         2172
  C:84B0H         LINE#         2173
  C:84B4H         LINE#         2174
  -------         ENDPROC       FUN104
  -------         PROC          FUN105
  -------         DO            
  X:0588H         SYMBOL        eeprom_buf
  X:0590H         SYMBOL        i
  -------         ENDDO         
  C:6413H         LINE#         2176
  C:6413H         LINE#         2177
  C:6413H         LINE#         2180
  C:6419H         LINE#         2181
  C:6419H         LINE#         2182
  C:641FH         LINE#         2183
  C:641FH         LINE#         2184
  C:6422H         LINE#         2185
  C:6428H         LINE#         2186
  C:642AH         LINE#         2187
  C:642DH         LINE#         2188
  C:6432H         LINE#         2189
  C:6432H         LINE#         2190
  C:6438H         LINE#         2191
  C:6438H         LINE#         2192
  C:643BH         LINE#         2193
  C:643EH         LINE#         2194
  C:6443H         LINE#         2195
  C:6443H         LINE#         2196
  C:645CH         LINE#         2198
  C:6461H         LINE#         2199
  C:6470H         LINE#         2200
  C:6470H         LINE#         2201
  C:647FH         LINE#         2202
  C:6487H         LINE#         2203
  C:648CH         LINE#         2204
  C:6492H         LINE#         2205
  C:6493H         LINE#         2206
  C:649BH         LINE#         2207
  C:649BH         LINE#         2208
  C:64A9H         LINE#         2209
  C:64B2H         LINE#         2210
  C:64B2H         LINE#         2211
  C:64B8H         LINE#         2212
  C:64B9H         LINE#         2214
  C:64B9H         LINE#         2215
  C:64BEH         LINE#         2216
  C:64BEH         LINE#         2218
  C:64BFH         LINE#         2219
  C:64C3H         LINE#         2220
  C:64C3H         LINE#         2221
  C:64C6H         LINE#         2222
  C:64CCH         LINE#         2223
BL51 BANKED LINKER/LOCATER V6.22                                                      03/10/2016  16:30:11  PAGE 112


  C:64CEH         LINE#         2224
  C:64D0H         LINE#         2225
  C:64D2H         LINE#         2226
  C:64D5H         LINE#         2227
  C:64D5H         LINE#         2229
  -------         ENDPROC       FUN105
  -------         PROC          FUN106
  C:6ABAH         LINE#         2231
  C:6ABAH         LINE#         2232
  C:6ABAH         LINE#         2235
  C:6AC1H         LINE#         2236
  C:6AC1H         LINE#         2237
  C:6ADAH         LINE#         2239
  C:6AE8H         LINE#         2240
  C:6AEDH         LINE#         2241
  C:6AF2H         LINE#         2257
  C:6AF2H         LINE#         2258
  C:6AFCH         LINE#         2259
  C:6AFCH         LINE#         2260
  C:6AFFH         LINE#         2261
  C:6B04H         LINE#         2262
  C:6B04H         LINE#         2263
  C:6B06H         LINE#         2264
  C:6B12H         LINE#         2265
  C:6B12H         LINE#         2266
  C:6B15H         LINE#         2267
  C:6B1BH         LINE#         2268
  C:6B1DH         LINE#         2269
  C:6B1FH         LINE#         2270
  C:6B21H         LINE#         2271
  C:6B24H         LINE#         2272
  C:6B24H         LINE#         2274
  C:6B24H         LINE#         2275
  C:6B2AH         LINE#         2276
  C:6B2AH         LINE#         2277
  C:6B2DH         LINE#         2278
  C:6B33H         LINE#         2279
  C:6B35H         LINE#         2280
  C:6B38H         LINE#         2281
  C:6B3DH         LINE#         2282
  C:6B3DH         LINE#         2283
  C:6B43H         LINE#         2284
  C:6B43H         LINE#         2285
  C:6B46H         LINE#         2286
  C:6B49H         LINE#         2287
  C:6B4EH         LINE#         2288
  C:6B4EH         LINE#         2289
  C:6B4EH         LINE#         2291
  -------         ENDPROC       FUN106
  -------         ENDMOD        TM1629

  -------         MODULE        TIMER
  C:0000H         SYMBOL        _ICE_DUMMY_
  X:069FH         PUBLIC        logout_cycle_number
  D:0080H         PUBLIC        P0
  D:0090H         PUBLIC        P1
  D:00A0H         PUBLIC        P2
BL51 BANKED LINKER/LOCATER V6.22                                                      03/10/2016  16:30:11  PAGE 113


  C:86ACH         PUBLIC        return_logout_cycle_table
  D:00B0H         PUBLIC        P3
  D:00C0H         PUBLIC        P4
  C:86E8H         PUBLIC        _set_second_filter_table
  D:00C8H         PUBLIC        P5
  X:06A0H         PUBLIC        second_times
  B:00A8H.7       PUBLIC        EA
  D:00E8H         PUBLIC        P6
  X:06A1H         PUBLIC        await_number
  D:00F8H         PUBLIC        P7
  X:06A2H         PUBLIC        again_and_again_time
  D:00A8H         PUBLIC        IE
  X:06A3H         PUBLIC        filter_other
  X:06A4H         PUBLIC        return_standby_time
  X:06A5H         PUBLIC        filter_main
  C:86D0H         PUBLIC        return_filter_other
  C:86CAH         PUBLIC        return_filter_main
  D:00B8H         PUBLIC        IP
  C:8694H         PUBLIC        _set_await_number_table
  D:00D8H         PUBLIC        CCON
  C:84E8H         PUBLIC        Init_Timer0
  C:86B2H         PUBLIC        _set_logout_cycle_table
  C:8523H         PUBLIC        Init_Timer1
  D:0098H         PUBLIC        SCON
  C:86A6H         PUBLIC        clear_main_press_time
  D:0089H         PUBLIC        TMOD
  D:0088H         PUBLIC        TCON
  X:06A6H         PUBLIC        fd_table
  X:06A7H         PUBLIC        main_press_time_table
  B:00C8H.5       PUBLIC        P55
  C:86C4H         PUBLIC        return_fd_table
  C:86D6H         PUBLIC        _set_filter_other
  C:8547H         PUBLIC        _set_filter_main
  B:00A8H.1       PUBLIC        ET0
  X:06A8H         PUBLIC        main_press_time
  B:0088H.5       PUBLIC        TF0
  B:00A8H.3       PUBLIC        ET1
  B:0088H.7       PUBLIC        TF1
  D:008CH         PUBLIC        TH0
  D:008DH         PUBLIC        TH1
  C:86A0H         PUBLIC        return_main_press_time
  D:008AH         PUBLIC        TL0
  D:008BH         PUBLIC        TL1
  X:06A9H         PUBLIC        second_filter_table
  B:0088H.4       PUBLIC        TR0
  C:86EEH         PUBLIC        return_second_filter_table
  C:51AEH         PUBLIC        Timer0_isr
  C:853CH         PUBLIC        _set_fd_table
  C:869AH         PUBLIC        _set_main_press_time_table
  C:72FEH         PUBLIC        Timer1_isr
  C:86E2H         PUBLIC        clear_second_filter_time
  X:06AAH         PUBLIC        await_number_table
  C:868EH         PUBLIC        return_await_number_table
  C:86DCH         PUBLIC        clear_again_and_again_time
  C:86BEH         PUBLIC        _set_main_press_time
  D:00D0H         PUBLIC        PSW
  C:86B8H         PUBLIC        clear_return_standby_time
BL51 BANKED LINKER/LOCATER V6.22                                                      03/10/2016  16:30:11  PAGE 114


  X:06ABH         PUBLIC        second_filter_time
  X:06ACH         PUBLIC        logout_cycle_table
  -------         PROC          INIT_TIMER0
  C:84E8H         LINE#         30
  C:84E8H         LINE#         31
  C:84E8H         LINE#         32
  C:84EBH         LINE#         33
  C:84EEH         LINE#         34
  C:84F1H         LINE#         35
  C:84F3H         LINE#         36
  C:84F5H         LINE#         37
  C:84F7H         LINE#         38
  -------         ENDPROC       INIT_TIMER0
  -------         PROC          INIT_TIMER1
  C:8523H         LINE#         40
  C:8523H         LINE#         41
  C:8523H         LINE#         42
  C:8526H         LINE#         43
  C:8529H         LINE#         44
  C:852CH         LINE#         45
  C:852EH         LINE#         46
  C:8530H         LINE#         48
  -------         ENDPROC       INIT_TIMER1
  -------         PROC          TIMER0_ISR
  -------         DO            
  X:05D2H         SYMBOL        func_index_temp
  X:05D3H         SYMBOL        Two_Menu_FC_E1_temp
  -------         ENDDO         
  C:51AEH         LINE#         50
  C:51CBH         LINE#         52
  C:51D0H         LINE#         53
  C:51D2H         LINE#         54
  C:51D4H         LINE#         55
  C:51D7H         LINE#         56
  C:51DAH         LINE#         57
  C:51E2H         LINE#         58
  C:51EAH         LINE#         65
  C:51EAH         LINE#         66
  C:51EAH         LINE#         67
  C:51F0H         LINE#         68
  C:51F4H         LINE#         69
  C:51F4H         LINE#         70
  C:51FAH         LINE#         71
  C:5200H         LINE#         72
  C:5205H         LINE#         73
  C:520BH         LINE#         74
  C:520BH         LINE#         75
  C:520DH         LINE#         76
  C:520DH         LINE#         78
  C:520DH         LINE#         79
  C:5216H         LINE#         80
  C:5216H         LINE#         81
  C:5218H         LINE#         82
  C:5218H         LINE#         83
  C:5221H         LINE#         84
  C:5221H         LINE#         85
  C:5223H         LINE#         86
BL51 BANKED LINKER/LOCATER V6.22                                                      03/10/2016  16:30:11  PAGE 115


  C:5223H         LINE#         87
  C:5229H         LINE#         88
  C:5229H         LINE#         89
  C:522BH         LINE#         90
  C:522BH         LINE#         91
  C:522BH         LINE#         93
  C:5232H         LINE#         94
  C:5232H         LINE#         95
  C:5236H         LINE#         96
  C:5236H         LINE#         98
  C:523CH         LINE#         99
  C:523CH         LINE#         100
  C:5242H         LINE#         101
  C:5248H         LINE#         102
  C:5248H         LINE#         103
  C:524BH         LINE#         104
  C:5250H         LINE#         105
  C:5250H         LINE#         106
  C:5250H         LINE#         108
  C:5257H         LINE#         109
  C:5257H         LINE#         110
  C:525DH         LINE#         111
  C:5263H         LINE#         112
  C:5263H         LINE#         113
  C:5268H         LINE#         114
  C:526CH         LINE#         115
  C:526CH         LINE#         116
  C:526CH         LINE#         118
  C:5274H         LINE#         119
  C:5274H         LINE#         120
  C:527AH         LINE#         121
  C:527EH         LINE#         122
  C:527EH         LINE#         123
  C:5284H         LINE#         124
  C:5289H         LINE#         125
  C:5289H         LINE#         127
  C:5289H         LINE#         129
  C:52A1H         LINE#         133
  C:52A1H         LINE#         134
  C:52A7H         LINE#         135
  C:52ADH         LINE#         136
  C:52ADH         LINE#         137
  C:52AFH         LINE#         138
  C:52B3H         LINE#         139
  C:52B3H         LINE#         140
  C:52B3H         LINE#         142
  C:52BEH         LINE#         143
  C:52BEH         LINE#         144
  C:52C4H         LINE#         145
  C:52CAH         LINE#         146
  C:52CAH         LINE#         147
  C:52CCH         LINE#         148
  C:52CEH         LINE#         149
  C:52CEH         LINE#         150
  C:52CEH         LINE#         152
  -------         ENDPROC       TIMER0_ISR
  -------         PROC          TIMER1_ISR
BL51 BANKED LINKER/LOCATER V6.22                                                      03/10/2016  16:30:11  PAGE 116


  -------         DO            
  D:0007H         SYMBOL        func_index_temp
  -------         ENDDO         
  C:72FEH         LINE#         154
  C:731BH         LINE#         156
  C:731DH         LINE#         157
  C:7320H         LINE#         158
  C:7322H         LINE#         159
  C:7325H         LINE#         160
  C:7328H         LINE#         161
  C:732CH         LINE#         162
  C:732CH         LINE#         163
  C:732FH         LINE#         164
  C:7331H         LINE#         166
  C:7331H         LINE#         167
  C:7334H         LINE#         168
  C:7334H         LINE#         170
  -------         ENDPROC       TIMER1_ISR
  -------         PROC          RETURN_AWAIT_NUMBER_TABLE
  -------         DO            
  D:0007H         SYMBOL        await_number_table_temp
  -------         ENDDO         
  C:868EH         LINE#         172
  C:868EH         LINE#         173
  C:868EH         LINE#         174
  C:868EH         LINE#         175
  C:8693H         LINE#         176
  C:8693H         LINE#         177
  -------         ENDPROC       RETURN_AWAIT_NUMBER_TABLE
  -------         PROC          _SET_AWAIT_NUMBER_TABLE
  D:0007H         SYMBOL        temp
  C:8694H         LINE#         179
  C:8694H         LINE#         180
  C:8694H         LINE#         181
  C:8699H         LINE#         182
  -------         ENDPROC       _SET_AWAIT_NUMBER_TABLE
  -------         PROC          _SET_MAIN_PRESS_TIME_TABLE
  D:0007H         SYMBOL        temp
  C:869AH         LINE#         184
  C:869AH         LINE#         185
  C:869AH         LINE#         186
  C:869FH         LINE#         187
  -------         ENDPROC       _SET_MAIN_PRESS_TIME_TABLE
  -------         PROC          RETURN_MAIN_PRESS_TIME
  -------         DO            
  D:0007H         SYMBOL        temp
  -------         ENDDO         
  C:86A0H         LINE#         189
  C:86A0H         LINE#         190
  C:86A0H         LINE#         191
  C:86A0H         LINE#         192
  C:86A5H         LINE#         193
  C:86A5H         LINE#         194
  -------         ENDPROC       RETURN_MAIN_PRESS_TIME
  -------         PROC          CLEAR_MAIN_PRESS_TIME
  C:86A6H         LINE#         196
  C:86A6H         LINE#         197
BL51 BANKED LINKER/LOCATER V6.22                                                      03/10/2016  16:30:11  PAGE 117


  C:86A6H         LINE#         198
  C:86ABH         LINE#         199
  -------         ENDPROC       CLEAR_MAIN_PRESS_TIME
  -------         PROC          RETURN_LOGOUT_CYCLE_TABLE
  -------         DO            
  D:0007H         SYMBOL        temp
  -------         ENDDO         
  C:86ACH         LINE#         201
  C:86ACH         LINE#         202
  C:86ACH         LINE#         203
  C:86ACH         LINE#         204
  C:86B1H         LINE#         205
  C:86B1H         LINE#         206
  -------         ENDPROC       RETURN_LOGOUT_CYCLE_TABLE
  -------         PROC          _SET_LOGOUT_CYCLE_TABLE
  D:0007H         SYMBOL        temp
  C:86B2H         LINE#         208
  C:86B2H         LINE#         209
  C:86B2H         LINE#         210
  C:86B7H         LINE#         211
  -------         ENDPROC       _SET_LOGOUT_CYCLE_TABLE
  -------         PROC          CLEAR_RETURN_STANDBY_TIME
  C:86B8H         LINE#         213
  C:86B8H         LINE#         214
  C:86B8H         LINE#         215
  C:86BDH         LINE#         216
  -------         ENDPROC       CLEAR_RETURN_STANDBY_TIME
  -------         PROC          _SET_MAIN_PRESS_TIME
  D:0007H         SYMBOL        temp
  C:86BEH         LINE#         218
  C:86BEH         LINE#         219
  C:86BEH         LINE#         220
  C:86C3H         LINE#         221
  -------         ENDPROC       _SET_MAIN_PRESS_TIME
  -------         PROC          RETURN_FD_TABLE
  -------         DO            
  D:0007H         SYMBOL        fd_table_temp
  -------         ENDDO         
  C:86C4H         LINE#         223
  C:86C4H         LINE#         224
  C:86C4H         LINE#         225
  C:86C4H         LINE#         226
  C:86C9H         LINE#         227
  C:86C9H         LINE#         228
  -------         ENDPROC       RETURN_FD_TABLE
  -------         PROC          _SET_FD_TABLE
  D:0007H         SYMBOL        temp
  C:853CH         LINE#         230
  C:853CH         LINE#         231
  C:853CH         LINE#         232
  C:8541H         LINE#         233
  C:8546H         LINE#         234
  -------         ENDPROC       _SET_FD_TABLE
  -------         PROC          RETURN_FILTER_MAIN
  -------         DO            
  D:0007H         SYMBOL        filter_main_temp
  -------         ENDDO         
BL51 BANKED LINKER/LOCATER V6.22                                                      03/10/2016  16:30:11  PAGE 118


  C:86CAH         LINE#         236
  C:86CAH         LINE#         237
  C:86CAH         LINE#         238
  C:86CAH         LINE#         239
  C:86CFH         LINE#         240
  C:86CFH         LINE#         241
  -------         ENDPROC       RETURN_FILTER_MAIN
  -------         PROC          _SET_FILTER_MAIN
  D:0007H         SYMBOL        temp
  C:8547H         LINE#         243
  C:8547H         LINE#         244
  C:8547H         LINE#         245
  C:854CH         LINE#         246
  C:8551H         LINE#         247
  -------         ENDPROC       _SET_FILTER_MAIN
  -------         PROC          RETURN_FILTER_OTHER
  -------         DO            
  D:0007H         SYMBOL        filter_other_temp
  -------         ENDDO         
  C:86D0H         LINE#         249
  C:86D0H         LINE#         250
  C:86D0H         LINE#         251
  C:86D0H         LINE#         252
  C:86D5H         LINE#         253
  C:86D5H         LINE#         254
  -------         ENDPROC       RETURN_FILTER_OTHER
  -------         PROC          _SET_FILTER_OTHER
  D:0007H         SYMBOL        temp
  C:86D6H         LINE#         256
  C:86D6H         LINE#         257
  C:86D6H         LINE#         258
  C:86DBH         LINE#         259
  -------         ENDPROC       _SET_FILTER_OTHER
  -------         PROC          CLEAR_AGAIN_AND_AGAIN_TIME
  C:86DCH         LINE#         261
  C:86DCH         LINE#         262
  C:86DCH         LINE#         263
  C:86E1H         LINE#         264
  -------         ENDPROC       CLEAR_AGAIN_AND_AGAIN_TIME
  -------         PROC          CLEAR_SECOND_FILTER_TIME
  C:86E2H         LINE#         266
  C:86E2H         LINE#         267
  C:86E2H         LINE#         268
  C:86E7H         LINE#         269
  -------         ENDPROC       CLEAR_SECOND_FILTER_TIME
  -------         PROC          _SET_SECOND_FILTER_TABLE
  D:0007H         SYMBOL        temp
  C:86E8H         LINE#         271
  C:86E8H         LINE#         272
  C:86E8H         LINE#         273
  C:86EDH         LINE#         274
  -------         ENDPROC       _SET_SECOND_FILTER_TABLE
  -------         PROC          RETURN_SECOND_FILTER_TABLE
  -------         DO            
  D:0007H         SYMBOL        second_filter_table_temp
  -------         ENDDO         
  C:86EEH         LINE#         276
BL51 BANKED LINKER/LOCATER V6.22                                                      03/10/2016  16:30:11  PAGE 119


  C:86EEH         LINE#         277
  C:86EEH         LINE#         278
  C:86EEH         LINE#         279
  C:86F3H         LINE#         280
  C:86F3H         LINE#         281
  -------         ENDPROC       RETURN_SECOND_FILTER_TABLE
  -------         ENDMOD        TIMER

  -------         MODULE        DS1302
  C:0000H         SYMBOL        _ICE_DUMMY_
  D:0080H         PUBLIC        P0
  D:0090H         PUBLIC        P1
  X:067FH         PUBLIC        time_buf1
  D:00A0H         PUBLIC        P2
  D:00B0H         PUBLIC        P3
  D:00C0H         PUBLIC        P4
  D:00C8H         PUBLIC        P5
  D:00E8H         PUBLIC        P6
  D:00F8H         PUBLIC        P7
  D:00A8H         PUBLIC        IE
  B:00A0H.1       PUBLIC        DS1302_SDA
  D:00B8H         PUBLIC        IP
  B:00A0H.2       PUBLIC        DS1302_SCK
  D:00D8H         PUBLIC        CCON
  D:0098H         PUBLIC        SCON
  D:0088H         PUBLIC        TCON
  B:00A0H.0       PUBLIC        DS1302_RST
  C:6E22H         PUBLIC        Ds1302_Read_Time
  X:0687H         PUBLIC        time_buf
  C:76CFH         PUBLIC        _Ds1302_Read_Byte
  C:6D07H         PUBLIC        Ds1302_Write_Time
  C:7694H         PUBLIC        _Ds1302_Write_Byte
  C:8552H         PUBLIC        Ds1302_Init
  D:00D0H         PUBLIC        PSW
  -------         PROC          L?0032
  -------         ENDPROC       L?0032
  -------         PROC          _DS1302_WRITE_BYTE
  D:0007H         SYMBOL        addr
  D:0005H         SYMBOL        d
  -------         DO            
  D:0006H         SYMBOL        i
  -------         ENDDO         
  C:7694H         LINE#         9
  C:7694H         LINE#         10
  C:7694H         LINE#         13
  C:7696H         LINE#         16
  C:769AH         LINE#         17
  C:769CH         LINE#         18
  C:769CH         LINE#         19
  C:76A0H         LINE#         20
  C:76A0H         LINE#         21
  C:76A2H         LINE#         22
  C:76A4H         LINE#         24
  C:76A4H         LINE#         25
  C:76A6H         LINE#         26
  C:76A6H         LINE#         27
  C:76A8H         LINE#         28
BL51 BANKED LINKER/LOCATER V6.22                                                      03/10/2016  16:30:11  PAGE 120


  C:76AAH         LINE#         29
  C:76AEH         LINE#         30
  C:76B3H         LINE#         33
  C:76B5H         LINE#         34
  C:76B5H         LINE#         35
  C:76B9H         LINE#         36
  C:76B9H         LINE#         37
  C:76BBH         LINE#         38
  C:76BDH         LINE#         40
  C:76BDH         LINE#         41
  C:76BFH         LINE#         42
  C:76BFH         LINE#         43
  C:76C1H         LINE#         44
  C:76C3H         LINE#         45
  C:76C7H         LINE#         46
  C:76CCH         LINE#         47
  C:76CEH         LINE#         48
  -------         ENDPROC       _DS1302_WRITE_BYTE
  -------         PROC          _DS1302_READ_BYTE
  D:0007H         SYMBOL        addr
  -------         DO            
  D:0005H         SYMBOL        i
  D:0006H         SYMBOL        temp
  -------         ENDDO         
  C:76CFH         LINE#         53
  C:76CFH         LINE#         54
  C:76CFH         LINE#         58
  C:76D1H         LINE#         61
  C:76D5H         LINE#         62
  C:76D7H         LINE#         63
  C:76D7H         LINE#         65
  C:76DBH         LINE#         66
  C:76DBH         LINE#         67
  C:76DDH         LINE#         68
  C:76DFH         LINE#         70
  C:76DFH         LINE#         71
  C:76E1H         LINE#         72
  C:76E1H         LINE#         73
  C:76E3H         LINE#         74
  C:76E5H         LINE#         75
  C:76E9H         LINE#         76
  C:76EEH         LINE#         79
  C:76F0H         LINE#         80
  C:76F0H         LINE#         81
  C:76F4H         LINE#         82
  C:76F7H         LINE#         83
  C:76F7H         LINE#         84
  C:76FAH         LINE#         85
  C:76FCH         LINE#         87
  C:76FCH         LINE#         88
  C:7700H         LINE#         89
  C:7700H         LINE#         90
  C:7702H         LINE#         91
  C:7704H         LINE#         92
  C:7709H         LINE#         94
  C:770BH         LINE#         95
  C:770DH         LINE#         96
BL51 BANKED LINKER/LOCATER V6.22                                                      03/10/2016  16:30:11  PAGE 121


  -------         ENDPROC       _DS1302_READ_BYTE
  -------         PROC          DS1302_WRITE_TIME
  -------         DO            
  D:0007H         SYMBOL        i
  D:0005H         SYMBOL        tmp
  -------         ENDDO         
  C:6D07H         LINE#         101
  C:6D07H         LINE#         102
  C:6D07H         LINE#         105
  C:6D09H         LINE#         106
  C:6D09H         LINE#         107
  C:6D1AH         LINE#         108
  C:6D2CH         LINE#         109
  C:6D3EH         LINE#         110
  C:6D43H         LINE#         111
  C:6D4AH         LINE#         112
  C:6D51H         LINE#         114
  C:6D5BH         LINE#         115
  C:6D63H         LINE#         116
  C:6D6BH         LINE#         117
  C:6D71H         LINE#         118
  C:6D7BH         LINE#         119
  C:6D83H         LINE#         120
  C:6D8BH         LINE#         121
  C:6D8FH         LINE#         122
  -------         ENDPROC       DS1302_WRITE_TIME
  -------         PROC          DS1302_READ_TIME
  -------         DO            
  D:0007H         SYMBOL        i
  D:0005H         SYMBOL        tmp
  -------         ENDDO         
  C:6E22H         LINE#         128
  C:6E22H         LINE#         129
  C:6E22H         LINE#         131
  C:6E2CH         LINE#         132
  C:6E34H         LINE#         133
  C:6E3CH         LINE#         134
  C:6E44H         LINE#         135
  C:6E4CH         LINE#         136
  C:6E56H         LINE#         137
  C:6E5EH         LINE#         140
  C:6E60H         LINE#         141
  C:6E60H         LINE#         142
  C:6E70H         LINE#         143
  C:6E80H         LINE#         144
  C:6E93H         LINE#         145
  C:6E98H         LINE#         146
  -------         ENDPROC       DS1302_READ_TIME
  -------         PROC          DS1302_INIT
  C:8552H         LINE#         151
  C:8552H         LINE#         152
  C:8552H         LINE#         154
  C:8554H         LINE#         155
  C:8556H         LINE#         156
  -------         ENDPROC       DS1302_INIT
  -------         ENDMOD        DS1302

BL51 BANKED LINKER/LOCATER V6.22                                                      03/10/2016  16:30:11  PAGE 122


  -------         MODULE        EV1527
  C:0000H         SYMBOL        _ICE_DUMMY_
  D:0080H         PUBLIC        P0
  D:0090H         PUBLIC        P1
  D:00A0H         PUBLIC        P2
  C:8273H         PUBLIC        RF_ini_receive
  D:00B0H         PUBLIC        P3
  D:00C0H         PUBLIC        P4
  X:0647H         PUBLIC        RF_trans0_test_count
  D:00C8H         PUBLIC        P5
  X:0649H         PUBLIC        RF_trans1_test_count
  B:00A8H.7       PUBLIC        EA
  D:00E8H         PUBLIC        P6
  D:00F8H         PUBLIC        P7
  X:064BH         PUBLIC        receive_rf_decoder_finished
  C:8706H         PUBLIC        clear_again_and_again_decoder_table
  D:00A8H         PUBLIC        IE
  X:064CH         PUBLIC        P_RF_INT
  X:064DH         PUBLIC        Timer0_interrupt_count
  C:8712H         PUBLIC        clear_register_manager
  D:00B8H         PUBLIC        IP
  X:064EH         PUBLIC        again_and_again_decoder_table
  D:00D8H         PUBLIC        CCON
  C:8700H         PUBLIC        return_again_and_again_decoder_table
  X:064FH         PUBLIC        old1_RF_RECE_REG
  X:0652H         PUBLIC        register_manager
  X:0653H         PUBLIC        old2_RF_RECE_REG
  C:870CH         PUBLIC        return_register_manager
  X:0656H         PUBLIC        RF_trans_count
  D:0098H         PUBLIC        SCON
  D:0088H         PUBLIC        TCON
  C:8578H         PUBLIC        return_RF_trans_count
  C:353CH         PUBLIC        RF_decode_main_sjz_test
  X:0658H         PUBLIC        Save_RF_trans0
  X:0659H         PUBLIC        Save_RF_trans1
  B:00B0H.2       PUBLIC        P3_RF_RXD
  X:065AH         PUBLIC        measure_sync_count1_saved
  X:065CH         PUBLIC        measure_sync_count2_saved
  B:0088H.0       PUBLIC        IT0
  B:00A8H.0       PUBLIC        EX0
  X:065EH         PUBLIC        RF_trans0
  X:065FH         PUBLIC        measure_sync_count1
  X:0661H         PUBLIC        RF_trans1
  X:0662H         PUBLIC        rx_table
  X:0663H         PUBLIC        measure_sync_count2
  B:0088H.6       PUBLIC        TR1
  X:0665H         PUBLIC        RF_RECE_REG
  C:8601H         PUBLIC        exint0
  C:86FAH         PUBLIC        clear_again_receive_rf_decoder_finished
  X:0668H         PUBLIC        RF_BIT_COUNTER
  C:4DD6H         PUBLIC        receive_rf_decoder
  C:4054H         PUBLIC        RF_decode_main
  X:0669H         PUBLIC        again_receive_rf_decoder_finished
  C:8609H         PUBLIC        exint0_init
  C:86F4H         PUBLIC        return_again_receive_rf_decoder_finished
  X:066AH         PUBLIC        tunning_finish_count
  D:00D0H         PUBLIC        PSW
BL51 BANKED LINKER/LOCATER V6.22                                                      03/10/2016  16:30:11  PAGE 123


  -------         PROC          EXINT0_INIT
  C:8609H         LINE#         40
  C:8609H         LINE#         41
  C:8609H         LINE#         42
  C:860BH         LINE#         43
  C:860DH         LINE#         44
  C:860FH         LINE#         45
  -------         ENDPROC       EXINT0_INIT
  -------         PROC          EXINT0
  C:8601H         LINE#         47
  C:8601H         LINE#         49
  C:8603H         LINE#         50
  C:8606H         LINE#         51
  C:8606H         LINE#         53
  C:8608H         LINE#         54
  C:8608H         LINE#         55
  -------         ENDPROC       EXINT0
  -------         PROC          RF_INI_RECEIVE
  C:8273H         LINE#         57
  C:8273H         LINE#         58
  C:8273H         LINE#         59
  C:827CH         LINE#         60
  C:8284H         LINE#         61
  C:8288H         LINE#         62
  C:828CH         LINE#         63
  C:828EH         LINE#         64
  -------         ENDPROC       RF_INI_RECEIVE
  -------         PROC          RF_DECODE_MAIN
  C:4054H         LINE#         66
  C:4054H         LINE#         67
  C:4054H         LINE#         68
  C:4057H         LINE#         69
  C:4057H         LINE#         70
  C:405AH         LINE#         71
  C:405CH         LINE#         73
  C:405CH         LINE#         74
  C:4062H         LINE#         75
  C:4062H         LINE#         76
  C:4068H         LINE#         77
  C:4072H         LINE#         78
  C:4072H         LINE#         79
  C:4074H         LINE#         80
  C:4076H         LINE#         81
  C:4079H         LINE#         84
  C:4079H         LINE#         85
  C:409CH         LINE#         86
  C:409CH         LINE#         87
  C:409CH         LINE#         88
  C:40A5H         LINE#         89
  C:40A5H         LINE#         91
  C:40A5H         LINE#         92
  C:40A5H         LINE#         93
  C:40A8H         LINE#         95
  C:40A8H         LINE#         96
  C:40B4H         LINE#         97
  C:40B4H         LINE#         99
  C:40BAH         LINE#         100
BL51 BANKED LINKER/LOCATER V6.22                                                      03/10/2016  16:30:11  PAGE 124


  C:40BFH         LINE#         101
  C:40BFH         LINE#         102
  C:40C1H         LINE#         103
  C:40C1H         LINE#         104
  C:40DBH         LINE#         105
  C:40DBH         LINE#         107
  C:40DBH         LINE#         108
  C:40DBH         LINE#         109
  C:40DEH         LINE#         111
  C:40DEH         LINE#         112
  C:40E7H         LINE#         113
  C:40E7H         LINE#         115
  C:40EAH         LINE#         116
  C:40EAH         LINE#         117
  C:40ECH         LINE#         118
  C:40ECH         LINE#         119
  C:40F2H         LINE#         120
  C:40F7H         LINE#         122
  C:40F7H         LINE#         123
  C:40F8H         LINE#         124
  C:40F8H         LINE#         125
  C:4101H         LINE#         126
  C:4101H         LINE#         127
  C:4109H         LINE#         128
  C:410EH         LINE#         129
  C:4114H         LINE#         130
  C:4114H         LINE#         131
  C:4120H         LINE#         132
  C:4120H         LINE#         133
  C:4120H         LINE#         134
  C:4120H         LINE#         135
  C:4123H         LINE#         137
  C:4123H         LINE#         138
  C:4123H         LINE#         139
  C:412CH         LINE#         140
  C:412CH         LINE#         141
  C:4135H         LINE#         142
  C:413AH         LINE#         143
  C:4140H         LINE#         144
  C:4158H         LINE#         145
  C:4160H         LINE#         146
  C:4160H         LINE#         147
  C:416EH         LINE#         148
  C:416EH         LINE#         149
  C:4174H         LINE#         150
  C:417AH         LINE#         151
  C:417AH         LINE#         162
  C:4180H         LINE#         167
  C:4181H         LINE#         169
  C:4181H         LINE#         170
  C:4181H         LINE#         171
  C:418DH         LINE#         172
  C:418DH         LINE#         173
  C:418DH         LINE#         174
  C:418DH         LINE#         175
  C:4190H         LINE#         177
  C:4190H         LINE#         178
BL51 BANKED LINKER/LOCATER V6.22                                                      03/10/2016  16:30:11  PAGE 125


  C:4190H         LINE#         180
  C:4190H         LINE#         181
  C:4199H         LINE#         182
  C:4199H         LINE#         183
  C:41A1H         LINE#         184
  C:41A6H         LINE#         185
  C:41ACH         LINE#         186
  C:41ACH         LINE#         187
  C:41D5H         LINE#         188
  C:41D5H         LINE#         189
  C:41D5H         LINE#         190
  C:41D5H         LINE#         191
  C:41D7H         LINE#         193
  C:41D7H         LINE#         194
  C:41D7H         LINE#         195
  C:41D7H         LINE#         196
  C:41E0H         LINE#         197
  C:41E0H         LINE#         198
  C:41F2H         LINE#         199
  C:41F2H         LINE#         200
  C:41F4H         LINE#         202
  C:41FAH         LINE#         203
  C:41FCH         LINE#         204
  C:41FCH         LINE#         205
  C:41FFH         LINE#         206
  C:41FFH         LINE#         207
  C:421DH         LINE#         208
  C:421DH         LINE#         209
  C:4220H         LINE#         210
  C:4222H         LINE#         211
  C:4224H         LINE#         212
  C:422AH         LINE#         214
  C:422AH         LINE#         215
  C:422AH         LINE#         218
  C:422AH         LINE#         219
  C:422AH         LINE#         220
  C:422DH         LINE#         221
  C:422FH         LINE#         222
  C:4231H         LINE#         223
  C:4231H         LINE#         224
  C:4231H         LINE#         225
  -------         ENDPROC       RF_DECODE_MAIN
  -------         PROC          RECEIVE_RF_DECODER
  -------         DO            
  X:05ACH         SYMBOL        func_index_temp
  D:0004H         SYMBOL        dat
  X:05ADH         SYMBOL        RFtmp
  -------         ENDDO         
  C:4DD6H         LINE#         227
  C:4DD6H         LINE#         228
  C:4DD6H         LINE#         230
  C:4DDBH         LINE#         233
  C:4DE3H         LINE#         235
  C:4DEEH         LINE#         236
  C:4DEEH         LINE#         237
  C:4DEFH         LINE#         238
  C:4DF1H         LINE#         239
BL51 BANKED LINKER/LOCATER V6.22                                                      03/10/2016  16:30:11  PAGE 126


  C:4DFEH         LINE#         240
  C:4DFEH         LINE#         241
  C:4DFEH         LINE#         242
  C:4E06H         LINE#         243
  C:4E0EH         LINE#         244
  C:4E16H         LINE#         245
  C:4E1CH         LINE#         246
  C:4E1FH         LINE#         247
  C:4E1FH         LINE#         248
  C:4E4CH         LINE#         249
  C:4E4CH         LINE#         250
  C:4E5DH         LINE#         251
  C:4E5DH         LINE#         252
  C:4E63H         LINE#         253
  C:4E63H         LINE#         254
  C:4E63H         LINE#         255
  C:4E63H         LINE#         256
  C:4E63H         LINE#         257
  C:4E63H         LINE#         258
  C:4E63H         LINE#         259
  C:4E63H         LINE#         261
  C:4E65H         LINE#         263
  C:4E65H         LINE#         264
  C:4E6DH         LINE#         265
  C:4E75H         LINE#         266
  C:4E7DH         LINE#         267
  C:4E83H         LINE#         268
  C:4E86H         LINE#         269
  C:4E86H         LINE#         271
  C:4E8CH         LINE#         272
  C:4E8FH         LINE#         273
  C:4ED5H         LINE#         275
  C:4EE1H         LINE#         276
  C:4EE1H         LINE#         277
  C:4EE7H         LINE#         278
  C:4EEBH         LINE#         279
  C:4EEEH         LINE#         280
  C:4EEEH         LINE#         282
  C:4EF3H         LINE#         283
  C:4EF5H         LINE#         284
  C:4EF7H         LINE#         285
  C:4EFBH         LINE#         286
  C:4EFDH         LINE#         287
  C:4EFFH         LINE#         288
  C:4EFFH         LINE#         289
  C:4EFFH         LINE#         291
  C:4EFFH         LINE#         293
  C:4F04H         LINE#         294
  C:4F06H         LINE#         296
  C:4F06H         LINE#         297
  C:4F0EH         LINE#         298
  C:4F16H         LINE#         299
  C:4F1EH         LINE#         300
  C:4F1EH         LINE#         301
  C:4F1EH         LINE#         302
  C:4F1EH         LINE#         303
  C:4F20H         LINE#         304
BL51 BANKED LINKER/LOCATER V6.22                                                      03/10/2016  16:30:11  PAGE 127


  C:4F20H         LINE#         305
  -------         ENDPROC       RECEIVE_RF_DECODER
  -------         PROC          RF_DECODE_MAIN_SJZ_TEST
  C:353CH         LINE#         307
  C:353CH         LINE#         308
  C:353CH         LINE#         310
  C:353FH         LINE#         311
  C:353FH         LINE#         312
  C:3542H         LINE#         313
  C:3544H         LINE#         315
  C:3544H         LINE#         316
  C:354AH         LINE#         317
  C:354AH         LINE#         318
  C:3550H         LINE#         319
  C:355AH         LINE#         320
  C:355AH         LINE#         321
  C:355CH         LINE#         322
  C:355EH         LINE#         323
  C:3560H         LINE#         325
  C:3560H         LINE#         326
  C:357AH         LINE#         327
  C:357AH         LINE#         328
  C:357AH         LINE#         329
  C:3583H         LINE#         330
  C:3583H         LINE#         333
  C:3585H         LINE#         334
  C:3587H         LINE#         335
  C:358AH         LINE#         337
  C:358AH         LINE#         338
  C:35ADH         LINE#         339
  C:35ADH         LINE#         341
  C:35B3H         LINE#         342
  C:35BBH         LINE#         343
  C:35BEH         LINE#         344
  C:35BEH         LINE#         345
  C:35C1H         LINE#         346
  C:35C1H         LINE#         347
  C:35EDH         LINE#         348
  C:35EDH         LINE#         351
  C:35F0H         LINE#         352
  C:35F0H         LINE#         353
  C:35FEH         LINE#         354
  C:360CH         LINE#         355
  C:360CH         LINE#         356
  C:360CH         LINE#         357
  C:360CH         LINE#         358
  C:360FH         LINE#         360
  C:360FH         LINE#         362
  C:3618H         LINE#         363
  C:3618H         LINE#         364
  C:3634H         LINE#         365
  C:363BH         LINE#         366
  C:363FH         LINE#         368
  C:3642H         LINE#         369
  C:3642H         LINE#         370
  C:3644H         LINE#         371
  C:3644H         LINE#         372
BL51 BANKED LINKER/LOCATER V6.22                                                      03/10/2016  16:30:11  PAGE 128


  C:364AH         LINE#         373
  C:364FH         LINE#         375
  C:364FH         LINE#         376
  C:3650H         LINE#         377
  C:3650H         LINE#         378
  C:3659H         LINE#         379
  C:3659H         LINE#         380
  C:3661H         LINE#         381
  C:3666H         LINE#         382
  C:366CH         LINE#         383
  C:366CH         LINE#         384
  C:3698H         LINE#         385
  C:3698H         LINE#         386
  C:3698H         LINE#         387
  C:3698H         LINE#         388
  C:369BH         LINE#         390
  C:369BH         LINE#         391
  C:369BH         LINE#         392
  C:36A7H         LINE#         393
  C:36A7H         LINE#         394
  C:36B0H         LINE#         395
  C:36B5H         LINE#         396
  C:36BBH         LINE#         397
  C:36D2H         LINE#         398
  C:36DBH         LINE#         399
  C:36DBH         LINE#         400
  C:36E9H         LINE#         401
  C:36E9H         LINE#         402
  C:36EFH         LINE#         403
  C:36F8H         LINE#         404
  C:36F8H         LINE#         405
  C:36FAH         LINE#         406
  C:3709H         LINE#         407
  C:370CH         LINE#         410
  C:371AH         LINE#         411
  C:372EH         LINE#         412
  C:373EH         LINE#         413
  C:3746H         LINE#         415
  C:3788H         LINE#         416
  C:3788H         LINE#         417
  C:379CH         LINE#         418
  C:37ACH         LINE#         419
  C:37B4H         LINE#         421
  C:37B4H         LINE#         423
  C:37B6H         LINE#         424
  C:37B7H         LINE#         425
  C:37B7H         LINE#         426
  C:37B7H         LINE#         427
  C:37E0H         LINE#         428
  C:37E0H         LINE#         429
  C:37E0H         LINE#         430
  C:37E0H         LINE#         431
  C:37E2H         LINE#         433
  C:37E2H         LINE#         434
  C:37E2H         LINE#         435
  C:37E2H         LINE#         436
  C:37E2H         LINE#         437
BL51 BANKED LINKER/LOCATER V6.22                                                      03/10/2016  16:30:11  PAGE 129


  C:37E5H         LINE#         438
  C:37E7H         LINE#         439
  C:37E9H         LINE#         440
  C:37E9H         LINE#         441
  C:37E9H         LINE#         442
  -------         ENDPROC       RF_DECODE_MAIN_SJZ_TEST
  -------         PROC          RETURN_AGAIN_RECEIVE_RF_DECODER_FINISHED
  -------         DO            
  D:0007H         SYMBOL        temp
  -------         ENDDO         
  C:86F4H         LINE#         444
  C:86F4H         LINE#         445
  C:86F4H         LINE#         447
  C:86F9H         LINE#         448
  C:86F9H         LINE#         449
  -------         ENDPROC       RETURN_AGAIN_RECEIVE_RF_DECODER_FINISHED
  -------         PROC          CLEAR_AGAIN_RECEIVE_RF_DECODER_FINISHED
  C:86FAH         LINE#         451
  C:86FAH         LINE#         452
  C:86FAH         LINE#         453
  C:86FFH         LINE#         454
  -------         ENDPROC       CLEAR_AGAIN_RECEIVE_RF_DECODER_FINISHED
  -------         PROC          RETURN_AGAIN_AND_AGAIN_DECODER_TABLE
  -------         DO            
  D:0007H         SYMBOL        temp
  -------         ENDDO         
  C:8700H         LINE#         456
  C:8700H         LINE#         457
  C:8700H         LINE#         459
  C:8705H         LINE#         460
  C:8705H         LINE#         461
  -------         ENDPROC       RETURN_AGAIN_AND_AGAIN_DECODER_TABLE
  -------         PROC          CLEAR_AGAIN_AND_AGAIN_DECODER_TABLE
  C:8706H         LINE#         463
  C:8706H         LINE#         464
  C:8706H         LINE#         465
  C:870BH         LINE#         466
  -------         ENDPROC       CLEAR_AGAIN_AND_AGAIN_DECODER_TABLE
  -------         PROC          RETURN_REGISTER_MANAGER
  -------         DO            
  D:0007H         SYMBOL        temp
  -------         ENDDO         
  C:870CH         LINE#         468
  C:870CH         LINE#         469
  C:870CH         LINE#         471
  C:8711H         LINE#         472
  C:8711H         LINE#         473
  -------         ENDPROC       RETURN_REGISTER_MANAGER
  -------         PROC          CLEAR_REGISTER_MANAGER
  C:8712H         LINE#         475
  C:8712H         LINE#         476
  C:8712H         LINE#         477
  C:8717H         LINE#         478
  -------         ENDPROC       CLEAR_REGISTER_MANAGER
  -------         PROC          RETURN_RF_TRANS_COUNT
  -------         DO            
  D:0006H         SYMBOL        temp
BL51 BANKED LINKER/LOCATER V6.22                                                      03/10/2016  16:30:11  PAGE 130


  -------         ENDDO         
  C:8578H         LINE#         480
  C:8578H         LINE#         481
  C:8578H         LINE#         483
  C:8580H         LINE#         484
  C:8580H         LINE#         485
  -------         ENDPROC       RETURN_RF_TRANS_COUNT
  -------         ENDMOD        EV1527

  -------         MODULE        DECODER
  C:0000H         SYMBOL        _ICE_DUMMY_
  D:0080H         PUBLIC        P0
  D:0090H         PUBLIC        P1
  D:00A0H         PUBLIC        P2
  D:00B0H         PUBLIC        P3
  D:00C0H         PUBLIC        P4
  D:00C8H         PUBLIC        P5
  D:00E8H         PUBLIC        P6
  D:00F8H         PUBLIC        P7
  X:04D3H         PUBLIC        decoder_num
  D:00A8H         PUBLIC        IE
  C:871EH         PUBLIC        _set_Two_menu_set_success
  C:68EFH         PUBLIC        _voice_display_synchronous_funtion
  X:04D4H         PUBLIC        await_voice_replay_time
  D:00B8H         PUBLIC        IP
  C:111BH         PUBLIC        DecoderProcess
  D:00D8H         PUBLIC        CCON
  X:04D5H         PUBLIC        await_voice_P24_status_saved
  X:04D6H         PUBLIC        buf_eeprom
  X:04DEH         SYMBOL        voice_mutex
  D:0098H         PUBLIC        SCON
  X:04DFH         PUBLIC        await_voice_ram
  C:7403H         PUBLIC        _await_voice_get
  D:0088H         PUBLIC        TCON
  B:00A0H.4       PUBLIC        P24
  C:764FH         PUBLIC        _await_voice_cycle_up
  C:6867H         PUBLIC        _await_voice_put
  X:057FH         PUBLIC        last_dat
  X:0583H         PUBLIC        Two_menu_set_success
  C:8718H         PUBLIC        return_Two_menu_set_success
  C:634BH         PUBLIC        _await_voice_array_forward
  C:6708H         PUBLIC        await_voice_process
  D:00D0H         PUBLIC        PSW
  -------         PROC          DECODERPROCESS
  -------         DO            
  X:0584H         SYMBOL        tmp
  X:058CH         SYMBOL        RFtmp
  X:0594H         SYMBOL        dat
  X:0598H         SYMBOL        state
  X:059AH         SYMBOL        k
  X:059BH         SYMBOL        index
  X:059CH         SYMBOL        temp_buff
  X:05A4H         SYMBOL        func_index_temp
  X:05A5H         SYMBOL        Two_Menu_F8_E1_temp
  X:05A6H         SYMBOL        Two_Menu_F8_E2_temp
  X:05A7H         SYMBOL        Two_Menu_F3_E1_temp
  X:05A8H         SYMBOL        Two_Menu_F3_E2_temp
BL51 BANKED LINKER/LOCATER V6.22                                                      03/10/2016  16:30:11  PAGE 131


  X:05A9H         SYMBOL        Two_Menu_F7_E1_temp
  X:05AAH         SYMBOL        Two_Menu_F6_E1_temp
  X:05ABH         SYMBOL        Two_Menu_F6_E2_temp
  C:1443H         SYMBOL        standby
  C:1916H         SYMBOL        decoder
  -------         ENDDO         
  C:111BH         LINE#         34
  C:111BH         LINE#         35
  C:111BH         LINE#         39
  C:1122H         LINE#         40
  C:1126H         LINE#         50
  C:112AH         LINE#         51
  C:112CH         LINE#         52
  C:112EH         LINE#         53
  C:1130H         LINE#         54
  C:1132H         LINE#         55
  C:1134H         LINE#         56
  C:1136H         LINE#         57
  C:1138H         LINE#         59
  C:1140H         LINE#         60
  C:1148H         LINE#         61
  C:1150H         LINE#         62
  C:1158H         LINE#         63
  C:1160H         LINE#         64
  C:1168H         LINE#         65
  C:1170H         LINE#         66
  C:1178H         LINE#         67
  C:1180H         LINE#         69
  C:1183H         LINE#         71
  C:118EH         LINE#         72
  C:118EH         LINE#         76
  C:11DAH         LINE#         77
  C:1210H         LINE#         78
  C:1210H         LINE#         79
  C:1210H         LINE#         80
  C:1210H         LINE#         81
  C:1215H         LINE#         88
  C:1243H         LINE#         90
  C:1243H         LINE#         91
  C:124DH         LINE#         92
  C:124DH         LINE#         93
  C:1257H         LINE#         94
  C:1259H         LINE#         96
  C:1259H         LINE#         97
  C:126AH         LINE#         98
  C:126AH         LINE#         99
  C:1276H         LINE#         100
  C:127BH         LINE#         101
  C:1287H         LINE#         102
  C:128CH         LINE#         103
  C:1294H         LINE#         104
  C:129CH         LINE#         105
  C:12A4H         LINE#         107
  C:12B0H         LINE#         108
  C:12B0H         LINE#         137
  C:12B3H         LINE#         139
  C:12B5H         LINE#         141
BL51 BANKED LINKER/LOCATER V6.22                                                      03/10/2016  16:30:11  PAGE 132


  C:12B5H         LINE#         142
  C:12B5H         LINE#         146
  C:12B5H         LINE#         147
  C:12B5H         LINE#         148
  C:12B8H         LINE#         149
  C:12B8H         LINE#         150
  C:12C5H         LINE#         151
  C:12C8H         LINE#         152
  C:12CBH         LINE#         162
  C:12E2H         LINE#         168
  C:12E7H         LINE#         171
  C:12EAH         LINE#         172
  C:12EAH         LINE#         177
  C:1313H         LINE#         178
  C:1313H         LINE#         179
  C:1335H         LINE#         180
  C:1335H         LINE#         181
  C:133BH         LINE#         182
  C:133BH         LINE#         183
  C:133EH         LINE#         184
  C:133EH         LINE#         188
  C:133EH         LINE#         189
  C:1352H         LINE#         190
  C:1355H         LINE#         191
  C:135AH         LINE#         192
  C:135AH         LINE#         198
  C:1367H         LINE#         199
  C:1367H         LINE#         200
  C:136DH         LINE#         201
  C:136FH         LINE#         202
  C:1375H         LINE#         203
  C:1375H         LINE#         204
  C:137BH         LINE#         205
  C:137DH         LINE#         207
  C:137DH         LINE#         208
  C:1387H         LINE#         209
  C:1387H         LINE#         214
  C:139AH         LINE#         215
  C:13A3H         LINE#         217
  C:13ACH         LINE#         218
  C:13ACH         LINE#         222
  C:13B3H         LINE#         223
  C:13B3H         LINE#         225
  C:13BDH         LINE#         226
  C:13BFH         LINE#         228
  C:13BFH         LINE#         230
  C:13D3H         LINE#         231
  C:13D3H         LINE#         232
  C:13D3H         LINE#         243
  C:13DFH         LINE#         244
  C:13DFH         LINE#         276
  C:13E2H         LINE#         278
  C:13E4H         LINE#         280
  C:13E4H         LINE#         284
  C:13F1H         LINE#         285
  C:13F4H         LINE#         289
  C:13F4H         LINE#         290
BL51 BANKED LINKER/LOCATER V6.22                                                      03/10/2016  16:30:11  PAGE 133


  C:13F4H         LINE#         291
  C:13F4H         LINE#         292
  C:13F7H         LINE#         293
  C:13F7H         LINE#         295
  C:13FAH         LINE#         305
  C:1411H         LINE#         316
  C:1416H         LINE#         317
  C:1416H         LINE#         318
  C:1419H         LINE#         320
  C:1419H         LINE#         321
  C:1419H         LINE#         323
  C:1419H         LINE#         325
  C:1419H         LINE#         326
  C:1419H         LINE#         327
  C:141EH         LINE#         333
  C:144CH         LINE#         336
  C:144CH         LINE#         337
  C:1456H         LINE#         338
  C:1456H         LINE#         339
  C:1460H         LINE#         340
  C:1462H         LINE#         342
  C:1462H         LINE#         343
  C:1473H         LINE#         344
  C:1473H         LINE#         345
  C:147FH         LINE#         346
  C:1484H         LINE#         347
  C:1490H         LINE#         348
  C:1495H         LINE#         349
  C:149DH         LINE#         350
  C:14A5H         LINE#         351
  C:14ADH         LINE#         352
  C:14B5H         LINE#         353
  C:14B5H         LINE#         354
  C:14C1H         LINE#         355
  C:14C1H         LINE#         383
  C:14C4H         LINE#         386
  C:14C6H         LINE#         388
  C:14C6H         LINE#         392
  C:14C6H         LINE#         393
  C:14C6H         LINE#         394
  C:14C6H         LINE#         395
  C:14C9H         LINE#         396
  C:14C9H         LINE#         397
  C:14D9H         LINE#         398
  C:14D9H         LINE#         425
  C:14DCH         LINE#         426
  C:14E7H         LINE#         427
  C:14E7H         LINE#         428
  C:14F3H         LINE#         429
  C:14F3H         LINE#         433
  C:14F3H         LINE#         434
  C:14F3H         LINE#         435
  C:14F3H         LINE#         436
  C:14F6H         LINE#         437
  C:14F6H         LINE#         438
  C:150CH         LINE#         439
  C:150CH         LINE#         440
BL51 BANKED LINKER/LOCATER V6.22                                                      03/10/2016  16:30:11  PAGE 134


  C:1571H         LINE#         441
  C:1571H         LINE#         442
  C:1577H         LINE#         444
  C:1599H         LINE#         450
  C:159BH         LINE#         451
  C:159BH         LINE#         452
  C:15A4H         LINE#         454
  C:15B3H         LINE#         455
  C:15B3H         LINE#         456
  C:15C8H         LINE#         457
  C:15C8H         LINE#         458
  C:15DCH         LINE#         459
  C:15DCH         LINE#         460
  C:15E4H         LINE#         461
  C:15E7H         LINE#         475
  C:1605H         LINE#         481
  C:1608H         LINE#         483
  C:1608H         LINE#         484
  C:1610H         LINE#         485
  C:1610H         LINE#         486
  C:1610H         LINE#         488
  C:1610H         LINE#         489
  C:1610H         LINE#         491
  C:1639H         LINE#         492
  C:1639H         LINE#         493
  C:165BH         LINE#         494
  C:165BH         LINE#         495
  C:1661H         LINE#         496
  C:1661H         LINE#         497
  C:1664H         LINE#         498
  C:1664H         LINE#         502
  C:1664H         LINE#         503
  C:1678H         LINE#         504
  C:167BH         LINE#         505
  C:1680H         LINE#         506
  C:1680H         LINE#         510
  C:168DH         LINE#         511
  C:168DH         LINE#         512
  C:1693H         LINE#         513
  C:1695H         LINE#         514
  C:169BH         LINE#         515
  C:169BH         LINE#         516
  C:16A1H         LINE#         517
  C:16A3H         LINE#         519
  C:16A3H         LINE#         520
  C:16ADH         LINE#         521
  C:16ADH         LINE#         523
  C:16C0H         LINE#         524
  C:16C9H         LINE#         526
  C:16D2H         LINE#         527
  C:16D2H         LINE#         528
  C:16D9H         LINE#         529
  C:16D9H         LINE#         531
  C:16E3H         LINE#         532
  C:16E5H         LINE#         534
  C:16E5H         LINE#         536
  C:16F9H         LINE#         537
BL51 BANKED LINKER/LOCATER V6.22                                                      03/10/2016  16:30:11  PAGE 135


  C:16F9H         LINE#         538
  C:16F9H         LINE#         540
  C:1701H         LINE#         541
  C:1701H         LINE#         543
  C:170DH         LINE#         544
  C:170DH         LINE#         576
  C:1710H         LINE#         578
  C:1712H         LINE#         580
  C:1712H         LINE#         587
  C:1712H         LINE#         588
  C:1712H         LINE#         589
  C:1712H         LINE#         590
  C:1714H         LINE#         591
  C:1714H         LINE#         592
  C:1724H         LINE#         593
  C:1727H         LINE#         621
  C:172AH         LINE#         622
  C:1735H         LINE#         623
  C:1735H         LINE#         624
  C:1741H         LINE#         625
  C:1741H         LINE#         629
  C:1758H         LINE#         630
  C:175BH         LINE#         631
  C:175EH         LINE#         632
  C:1761H         LINE#         633
  C:1761H         LINE#         635
  C:1777H         LINE#         636
  C:1777H         LINE#         637
  C:17DCH         LINE#         638
  C:17DCH         LINE#         639
  C:17E2H         LINE#         641
  C:1804H         LINE#         647
  C:1806H         LINE#         648
  C:1806H         LINE#         649
  C:180FH         LINE#         651
  C:181BH         LINE#         652
  C:181BH         LINE#         653
  C:182DH         LINE#         654
  C:182DH         LINE#         655
  C:1841H         LINE#         656
  C:1841H         LINE#         657
  C:1849H         LINE#         658
  C:184CH         LINE#         672
  C:186AH         LINE#         678
  C:186CH         LINE#         680
  C:186CH         LINE#         681
  C:1874H         LINE#         682
  C:1874H         LINE#         683
  C:1874H         LINE#         687
  C:1877H         LINE#         688
  C:187AH         LINE#         690
  C:187AH         LINE#         693
  C:187AH         LINE#         695
  C:187AH         LINE#         697
  C:187AH         LINE#         698
  C:187AH         LINE#         699
  C:187AH         LINE#         700
BL51 BANKED LINKER/LOCATER V6.22                                                      03/10/2016  16:30:11  PAGE 136


  C:187AH         LINE#         701
  C:187AH         LINE#         702
  C:187FH         LINE#         704
  C:1892H         LINE#         705
  C:18DEH         LINE#         706
  C:18ECH         LINE#         707
  C:18ECH         LINE#         713
  C:18EFH         LINE#         714
  C:18F7H         LINE#         715
  C:18F7H         LINE#         716
  C:18FFH         LINE#         717
  C:18FFH         LINE#         718
  C:1906H         LINE#         719
  C:1906H         LINE#         720
  C:190CH         LINE#         721
  C:190FH         LINE#         722
  C:1911H         LINE#         723
  C:1918H         LINE#         724
  C:1918H         LINE#         725
  C:191AH         LINE#         726
  C:191FH         LINE#         727
  C:1922H         LINE#         729
  C:1922H         LINE#         730
  C:1925H         LINE#         731
  C:1925H         LINE#         732
  C:1928H         LINE#         734
  C:1928H         LINE#         735
  C:192BH         LINE#         736
  C:192BH         LINE#         737
  C:192BH         LINE#         738
  C:192BH         LINE#         739
  C:192EH         LINE#         741
  C:192EH         LINE#         742
  C:1931H         LINE#         743
  C:1931H         LINE#         744
  C:1931H         LINE#         745
  C:1934H         LINE#         747
  C:1937H         LINE#         748
  C:1937H         LINE#         749
  C:193AH         LINE#         750
  C:193AH         LINE#         752
  C:193AH         LINE#         753
  C:193AH         LINE#         754
  C:193AH         LINE#         755
  C:193AH         LINE#         756
  C:193AH         LINE#         757
  C:193FH         LINE#         758
  C:1952H         LINE#         759
  C:199EH         LINE#         761
  C:19ACH         LINE#         762
  C:19ACH         LINE#         768
  C:19AFH         LINE#         769
  C:19B7H         LINE#         770
  C:19B7H         LINE#         771
  C:19BFH         LINE#         772
  C:19BFH         LINE#         773
  C:19C6H         LINE#         774
BL51 BANKED LINKER/LOCATER V6.22                                                      03/10/2016  16:30:11  PAGE 137


  C:19C6H         LINE#         775
  C:19CCH         LINE#         776
  C:19CFH         LINE#         777
  C:19D1H         LINE#         778
  C:19D8H         LINE#         779
  C:19D8H         LINE#         780
  C:19DAH         LINE#         781
  C:19DFH         LINE#         782
  C:19E2H         LINE#         784
  C:19E2H         LINE#         785
  C:19E5H         LINE#         786
  C:19E5H         LINE#         789
  C:19E8H         LINE#         791
  C:19E8H         LINE#         792
  C:19EBH         LINE#         793
  C:19EBH         LINE#         794
  C:19EBH         LINE#         795
  C:19EBH         LINE#         796
  C:19EEH         LINE#         798
  C:19EEH         LINE#         799
  C:19F1H         LINE#         800
  C:19F1H         LINE#         801
  C:19F1H         LINE#         802
  C:19F4H         LINE#         804
  C:19F7H         LINE#         805
  C:19F7H         LINE#         806
  C:19FAH         LINE#         807
  C:19FAH         LINE#         809
  C:19FAH         LINE#         810
  C:19FAH         LINE#         811
  C:19FAH         LINE#         812
  C:19FAH         LINE#         813
  C:19FAH         LINE#         814
  C:19FFH         LINE#         816
  C:1A12H         LINE#         817
  C:1A5EH         LINE#         819
  C:1A6CH         LINE#         820
  C:1A6CH         LINE#         826
  C:1A6FH         LINE#         827
  C:1A77H         LINE#         828
  C:1A77H         LINE#         829
  C:1A7FH         LINE#         830
  C:1A7FH         LINE#         831
  C:1A86H         LINE#         832
  C:1A86H         LINE#         833
  C:1A8CH         LINE#         834
  C:1A8FH         LINE#         835
  C:1A91H         LINE#         836
  C:1A98H         LINE#         837
  C:1A98H         LINE#         838
  C:1A9AH         LINE#         839
  C:1A9FH         LINE#         840
  C:1AA2H         LINE#         842
  C:1AA2H         LINE#         843
  C:1AA5H         LINE#         844
  C:1AA5H         LINE#         845
  C:1AA8H         LINE#         847
BL51 BANKED LINKER/LOCATER V6.22                                                      03/10/2016  16:30:11  PAGE 138


  C:1AA8H         LINE#         848
  C:1AABH         LINE#         849
  C:1AABH         LINE#         850
  C:1AABH         LINE#         851
  C:1AABH         LINE#         852
  C:1AAEH         LINE#         854
  C:1AAEH         LINE#         855
  C:1AB1H         LINE#         856
  C:1AB1H         LINE#         857
  C:1AB1H         LINE#         858
  C:1AB4H         LINE#         860
  C:1AB7H         LINE#         861
  C:1AB7H         LINE#         862
  C:1ABAH         LINE#         863
  C:1ABAH         LINE#         864
  C:1ABAH         LINE#         865
  C:1ABAH         LINE#         866
  C:1ABAH         LINE#         867
  C:1ABAH         LINE#         868
  C:1ABAH         LINE#         869
  C:1ABFH         LINE#         871
  C:1AD2H         LINE#         872
  C:1B1EH         LINE#         875
  C:1B2CH         LINE#         876
  C:1B2CH         LINE#         882
  C:1B2FH         LINE#         883
  C:1B37H         LINE#         884
  C:1B37H         LINE#         885
  C:1B3FH         LINE#         886
  C:1B3FH         LINE#         887
  C:1B46H         LINE#         888
  C:1B46H         LINE#         889
  C:1B4CH         LINE#         890
  C:1B4FH         LINE#         891
  C:1B51H         LINE#         892
  C:1B58H         LINE#         893
  C:1B58H         LINE#         894
  C:1B5AH         LINE#         895
  C:1B5FH         LINE#         896
  C:1B62H         LINE#         898
  C:1B62H         LINE#         899
  C:1B68H         LINE#         900
  C:1B68H         LINE#         901
  C:1B6BH         LINE#         903
  C:1B6BH         LINE#         904
  C:1B71H         LINE#         905
  C:1B74H         LINE#         906
  C:1B76H         LINE#         907
  C:1B76H         LINE#         908
  C:1B78H         LINE#         910
  C:1B78H         LINE#         911
  C:1B7EH         LINE#         912
  C:1B81H         LINE#         913
  C:1B81H         LINE#         914
  C:1B83H         LINE#         916
  C:1B89H         LINE#         917
  C:1B89H         LINE#         918
BL51 BANKED LINKER/LOCATER V6.22                                                      03/10/2016  16:30:11  PAGE 139


  C:1B8BH         LINE#         919
  C:1B8BH         LINE#         920
  C:1B8BH         LINE#         921
  C:1B90H         LINE#         922
  C:1B96H         LINE#         923
  C:1B9DH         LINE#         924
  C:1B9DH         LINE#         925
  C:1BB1H         LINE#         926
  C:1BBFH         LINE#         927
  C:1BC1H         LINE#         929
  C:1BC1H         LINE#         930
  C:1BD7H         LINE#         931
  C:1BECH         LINE#         932
  C:1BECH         LINE#         951
  C:1BECH         LINE#         954
  C:1BECH         LINE#         955
  C:1BECH         LINE#         956
  C:1BEFH         LINE#         957
  C:1BEFH         LINE#         960
  C:1BF2H         LINE#         961
  -------         ENDPROC       DECODERPROCESS
  -------         PROC          RETURN_TWO_MENU_SET_SUCCESS
  -------         DO            
  D:0007H         SYMBOL        temp
  -------         ENDDO         
  C:8718H         LINE#         964
  C:8718H         LINE#         965
  C:8718H         LINE#         966
  C:8718H         LINE#         967
  C:871DH         LINE#         968
  C:871DH         LINE#         969
  -------         ENDPROC       RETURN_TWO_MENU_SET_SUCCESS
  -------         PROC          _SET_TWO_MENU_SET_SUCCESS
  D:0007H         SYMBOL        temp
  C:871EH         LINE#         971
  C:871EH         LINE#         972
  C:871EH         LINE#         973
  C:8723H         LINE#         974
  -------         ENDPROC       _SET_TWO_MENU_SET_SUCCESS
  -------         PROC          AWAIT_VOICE_PROCESS
  -------         DO            
  X:0584H         SYMBOL        voice_buf
  X:058CH         SYMBOL        report_mode
  -------         ENDDO         
  C:6708H         LINE#         1008
  C:6708H         LINE#         1009
  C:6708H         LINE#         1011
  C:670DH         LINE#         1012
  C:6715H         LINE#         1013
  C:672DH         LINE#         1014
  C:672DH         LINE#         1015
  C:6733H         LINE#         1016
  C:6733H         LINE#         1017
  C:6736H         LINE#         1018
  C:673DH         LINE#         1019
  C:6762H         LINE#         1020
  C:6768H         LINE#         1021
BL51 BANKED LINKER/LOCATER V6.22                                                      03/10/2016  16:30:11  PAGE 140


  C:676BH         LINE#         1022
  C:676BH         LINE#         1023
  C:6774H         LINE#         1024
  C:6774H         LINE#         1025
  C:6774H         LINE#         1027
  C:6774H         LINE#         1028
  C:677CH         LINE#         1029
  C:677FH         LINE#         1030
  C:67A9H         LINE#         1032
  C:67B2H         LINE#         1035
  C:67B2H         LINE#         1036
  C:67B2H         LINE#         1037
  -------         ENDPROC       AWAIT_VOICE_PROCESS
  C:6853H         SYMBOL        L?0209
  -------         PROC          L?0208
  -------         ENDPROC       L?0208
  C:6853H         SYMBOL        L?0209
  -------         PROC          _AWAIT_VOICE_PUT
  X:05ACH         SYMBOL        buf
  X:05AFH         SYMBOL        voice_ram
  -------         DO            
  X:05B2H         SYMBOL        i
  D:0005H         SYMBOL        j
  X:05B3H         SYMBOL        index
  -------         ENDDO         
  C:6867H         LINE#         1039
  C:6872H         LINE#         1040
  C:6872H         LINE#         1041
  C:687CH         LINE#         1042
  C:688BH         LINE#         1043
  C:688BH         LINE#         1044
  C:68A6H         LINE#         1045
  C:68A6H         LINE#         1047
  C:68A7H         LINE#         1048
  C:68A7H         LINE#         1049
  C:68E0H         LINE#         1050
  C:68E6H         LINE#         1051
  C:68E6H         LINE#         1052
  C:68E6H         LINE#         1053
  C:68EEH         LINE#         1055
  -------         ENDPROC       _AWAIT_VOICE_PUT
  -------         PROC          L?0210
  -------         ENDPROC       L?0210
  -------         PROC          _AWAIT_VOICE_GET
  X:058DH         SYMBOL        buf
  X:0590H         SYMBOL        voice_ram
  -------         DO            
  D:0007H         SYMBOL        i
  -------         ENDDO         
  C:7403H         LINE#         1057
  C:740EH         LINE#         1058
  C:740EH         LINE#         1059
  C:7410H         LINE#         1061
  C:7410H         LINE#         1062
  C:7410H         LINE#         1063
  C:7438H         LINE#         1064
  C:743DH         LINE#         1065
BL51 BANKED LINKER/LOCATER V6.22                                                      03/10/2016  16:30:11  PAGE 141


  -------         ENDPROC       _AWAIT_VOICE_GET
  -------         PROC          _AWAIT_VOICE_CYCLE_UP
  X:0592H         SYMBOL        voice_ram
  -------         DO            
  D:0007H         SYMBOL        i
  -------         ENDDO         
  C:764FH         LINE#         1067
  C:765AH         LINE#         1068
  C:765AH         LINE#         1069
  C:765CH         LINE#         1070
  C:765CH         LINE#         1071
  C:765CH         LINE#         1072
  C:768AH         LINE#         1073
  C:768FH         LINE#         1074
  -------         ENDPROC       _AWAIT_VOICE_CYCLE_UP
  -------         PROC          _AWAIT_VOICE_ARRAY_FORWARD
  X:058DH         SYMBOL        voice_ram
  -------         DO            
  X:0590H         SYMBOL        i
  X:0591H         SYMBOL        index
  -------         ENDDO         
  C:634BH         LINE#         1076
  C:6356H         LINE#         1077
  C:6356H         LINE#         1078
  C:635DH         LINE#         1080
  C:636CH         LINE#         1081
  C:636CH         LINE#         1082
  C:6387H         LINE#         1083
  C:6387H         LINE#         1084
  C:638DH         LINE#         1085
  C:638FH         LINE#         1086
  C:638FH         LINE#         1087
  C:6397H         LINE#         1088
  C:63ABH         LINE#         1089
  C:63ABH         LINE#         1090
  C:63C4H         LINE#         1091
  C:63CCH         LINE#         1093
  C:63DBH         LINE#         1094
  C:63DBH         LINE#         1095
  C:640AH         LINE#         1096
  C:6412H         LINE#         1098
  -------         ENDPROC       _AWAIT_VOICE_ARRAY_FORWARD
  -------         PROC          _VOICE_DISPLAY_SYNCHRONOUS_FUNTION
  X:058DH         SYMBOL        temp_buff
  -------         DO            
  X:0590H         SYMBOL        l
  -------         ENDDO         
  C:68EFH         LINE#         1105
  C:68FAH         LINE#         1106
  C:68FAH         LINE#         1107
  C:68FDH         LINE#         1108
  C:6911H         LINE#         1110
  C:6923H         LINE#         1111
  C:6923H         LINE#         1112
  C:6941H         LINE#         1113
  C:6949H         LINE#         1114
  C:6958H         LINE#         1115
BL51 BANKED LINKER/LOCATER V6.22                                                      03/10/2016  16:30:11  PAGE 142


  C:6958H         LINE#         1116
  C:6964H         LINE#         1117
  C:696CH         LINE#         1119
  -------         ENDPROC       _VOICE_DISPLAY_SYNCHRONOUS_FUNTION
  -------         ENDMOD        DECODER

  -------         MODULE        AT24C256
  C:0000H         SYMBOL        _ICE_DUMMY_
  D:0080H         PUBLIC        P0
  D:0090H         PUBLIC        P1
  C:5421H         PUBLIC        _register_cancel_function
  D:00A0H         PUBLIC        P2
  D:00B0H         PUBLIC        P3
  D:00C0H         PUBLIC        P4
  D:00C8H         PUBLIC        P5
  C:627FH         PUBLIC        _Find_RF_EEPROM_Call
  D:00E8H         PUBLIC        P6
  D:00F8H         PUBLIC        P7
  C:57B5H         PUBLIC        _delete_cancel_function
  C:84D7H         PUBLIC        NoAck_I2c
  D:00A8H         PUBLIC        IE
  C:7265H         PUBLIC        _ISendStr
  D:00B8H         PUBLIC        IP
  C:770EH         PUBLIC        _SendByte
  D:00D8H         PUBLIC        CCON
  C:6F78H         PUBLIC        _Find_RF_EEPROM
  C:5F36H         PUBLIC        _Find_RF_EEPROM_Host
  C:52E9H         PUBLIC        _register_alarm_function
  B:0021H.2       PUBLIC        ack
  C:6EA8H         PUBLIC        _IRcvStr
  C:8364H         PUBLIC        _DelayMs
  C:568AH         PUBLIC        _delete_alarm_function
  D:0098H         PUBLIC        SCON
  D:0088H         PUBLIC        TCON
  C:58E0H         PUBLIC        _register_call_function
  C:5C4EH         PUBLIC        _delete_call_function
  C:67B3H         SYMBOL        _?ix1000
  C:7EC1H         PUBLIC        RcvByte
  C:67D3H         SYMBOL        _?ix1001
  C:67F3H         SYMBOL        _?ix1002
  C:6813H         SYMBOL        _?ix1003
  C:6833H         SYMBOL        _?ix1004
  X:068FH         PUBLIC        EEPROM
  C:84C6H         PUBLIC        Ack_I2c
  C:834EH         PUBLIC        Start_I2c
  C:60DCH         PUBLIC        _Find_RF_EEPROM_Cancel
  C:5559H         PUBLIC        _register_host_function
  B:00B0H.4       PUBLIC        SDA
  B:00B0H.5       PUBLIC        SCL
  C:5B2AH         PUBLIC        _delete_host_function
  C:8783H         PUBLIC        _DelayUs2x
  C:84B5H         PUBLIC        Stop_I2c
  C:709FH         PUBLIC        Delete_all_data
  C:6009H         PUBLIC        _Find_RF_EEPROM_Alarm
  D:00D0H         PUBLIC        PSW
  -------         PROC          _DELAYUS2X
  D:0007H         SYMBOL        t
BL51 BANKED LINKER/LOCATER V6.22                                                      03/10/2016  16:30:11  PAGE 143


  C:8783H         LINE#         9
  C:8783H         LINE#         10
  C:8783H         LINE#         11
  C:8785H         LINE#         12
  -------         ENDPROC       _DELAYUS2X
  -------         PROC          _DELAYMS
  D:0006H         SYMBOL        t
  C:8364H         LINE#         18
  C:8366H         LINE#         19
  C:8366H         LINE#         20
  C:836CH         LINE#         21
  C:836CH         LINE#         23
  C:8371H         LINE#         24
  C:8376H         LINE#         25
  C:8378H         LINE#         26
  -------         ENDPROC       _DELAYMS
  -------         PROC          START_I2C
  C:834EH         LINE#         32
  C:834EH         LINE#         33
  C:834EH         LINE#         34
  C:8350H         LINE#         35
  C:8351H         LINE#         36
  C:8353H         LINE#         37
  C:8354H         LINE#         38
  C:8355H         LINE#         39
  C:8356H         LINE#         40
  C:8357H         LINE#         41
  C:8358H         LINE#         42
  C:835AH         LINE#         43
  C:835BH         LINE#         44
  C:835CH         LINE#         45
  C:835DH         LINE#         46
  C:835EH         LINE#         47
  C:835FH         LINE#         48
  C:8361H         LINE#         49
  C:8362H         LINE#         50
  C:8363H         LINE#         51
  -------         ENDPROC       START_I2C
  -------         PROC          STOP_I2C
  C:84B5H         LINE#         55
  C:84B5H         LINE#         56
  C:84B5H         LINE#         57
  C:84B7H         LINE#         58
  C:84B8H         LINE#         59
  C:84BAH         LINE#         60
  C:84BBH         LINE#         61
  C:84BCH         LINE#         62
  C:84BDH         LINE#         63
  C:84BEH         LINE#         64
  C:84BFH         LINE#         65
  C:84C1H         LINE#         66
  C:84C2H         LINE#         67
  C:84C3H         LINE#         68
  C:84C4H         LINE#         69
  C:84C5H         LINE#         70
  -------         ENDPROC       STOP_I2C
  -------         PROC          _SENDBYTE
BL51 BANKED LINKER/LOCATER V6.22                                                      03/10/2016  16:30:11  PAGE 144


  D:0007H         SYMBOL        c
  -------         DO            
  D:0006H         SYMBOL        BitCnt
  -------         ENDDO         
  C:770EH         LINE#         79
  C:770EH         LINE#         80
  C:770EH         LINE#         82
  C:7710H         LINE#         83
  C:7710H         LINE#         84
  C:771DH         LINE#         85
  C:7721H         LINE#         87
  C:7723H         LINE#         88
  C:7724H         LINE#         89
  C:7726H         LINE#         90
  C:7727H         LINE#         91
  C:7728H         LINE#         92
  C:7729H         LINE#         93
  C:772AH         LINE#         94
  C:772BH         LINE#         95
  C:772DH         LINE#         96
  C:7732H         LINE#         97
  C:7733H         LINE#         98
  C:7734H         LINE#         99
  C:7736H         LINE#         100
  C:7737H         LINE#         101
  C:7738H         LINE#         102
  C:773AH         LINE#         103
  C:773BH         LINE#         104
  C:773CH         LINE#         105
  C:773DH         LINE#         106
  C:7744H         LINE#         107
  C:7746H         LINE#         108
  C:7748H         LINE#         109
  C:7749H         LINE#         110
  C:774AH         LINE#         111
  -------         ENDPROC       _SENDBYTE
  -------         PROC          RCVBYTE
  -------         DO            
  D:0007H         SYMBOL        retc
  D:0006H         SYMBOL        BitCnt
  -------         ENDDO         
  C:7EC1H         LINE#         119
  C:7EC1H         LINE#         120
  C:7EC1H         LINE#         123
  C:7EC3H         LINE#         124
  C:7EC5H         LINE#         125
  C:7EC6H         LINE#         126
  C:7EC6H         LINE#         127
  C:7EC7H         LINE#         128
  C:7EC9H         LINE#         129
  C:7ECAH         LINE#         130
  C:7ECBH         LINE#         131
  C:7ECCH         LINE#         132
  C:7ECDH         LINE#         133
  C:7ECEH         LINE#         134
  C:7ED0H         LINE#         135
  C:7ED1H         LINE#         136
BL51 BANKED LINKER/LOCATER V6.22                                                      03/10/2016  16:30:11  PAGE 145


  C:7ED2H         LINE#         137
  C:7ED6H         LINE#         138
  C:7EDAH         LINE#         139
  C:7EDBH         LINE#         140
  C:7EDCH         LINE#         141
  C:7EE1H         LINE#         142
  C:7EE3H         LINE#         143
  C:7EE4H         LINE#         144
  C:7EE5H         LINE#         145
  C:7EE5H         LINE#         146
  -------         ENDPROC       RCVBYTE
  -------         PROC          ACK_I2C
  C:84C6H         LINE#         154
  C:84C6H         LINE#         155
  C:84C6H         LINE#         156
  C:84C8H         LINE#         157
  C:84C9H         LINE#         158
  C:84CAH         LINE#         159
  C:84CBH         LINE#         160
  C:84CDH         LINE#         161
  C:84CEH         LINE#         162
  C:84CFH         LINE#         163
  C:84D0H         LINE#         164
  C:84D1H         LINE#         165
  C:84D2H         LINE#         166
  C:84D4H         LINE#         167
  C:84D5H         LINE#         168
  C:84D6H         LINE#         169
  -------         ENDPROC       ACK_I2C
  -------         PROC          NOACK_I2C
  C:84D7H         LINE#         176
  C:84D7H         LINE#         177
  C:84D7H         LINE#         178
  C:84D9H         LINE#         179
  C:84DAH         LINE#         180
  C:84DBH         LINE#         181
  C:84DCH         LINE#         182
  C:84DEH         LINE#         183
  C:84DFH         LINE#         184
  C:84E0H         LINE#         185
  C:84E1H         LINE#         186
  C:84E2H         LINE#         187
  C:84E3H         LINE#         188
  C:84E5H         LINE#         189
  C:84E6H         LINE#         190
  C:84E7H         LINE#         191
  -------         ENDPROC       NOACK_I2C
  C:725DH         SYMBOL        L?0199
  C:725FH         SYMBOL        L?0200
  -------         PROC          L?0198
  -------         ENDPROC       L?0198
  C:725DH         SYMBOL        L?0199
  C:725FH         SYMBOL        L?0200
  -------         PROC          _ISENDSTR
  D:0007H         SYMBOL        sla
  D:0004H         SYMBOL        suba
  D:0001H         SYMBOL        s
BL51 BANKED LINKER/LOCATER V6.22                                                      03/10/2016  16:30:11  PAGE 146


  X:05C4H         SYMBOL        no
  -------         DO            
  D:0005H         SYMBOL        i
  -------         ENDDO         
  C:7265H         LINE#         201
  C:7265H         LINE#         202
  C:7265H         LINE#         204
  C:7268H         LINE#         205
  C:726BH         LINE#         206
  C:7270H         LINE#         207
  C:7275H         LINE#         208
  C:727AH         LINE#         209
  C:727FH         LINE#         210
  C:7284H         LINE#         211
  C:7290H         LINE#         212
  C:7290H         LINE#         213
  C:7297H         LINE#         214
  C:729CH         LINE#         215
  C:72A3H         LINE#         216
  C:72A6H         LINE#         217
  C:72A9H         LINE#         218
  C:72AAH         LINE#         219
  -------         ENDPROC       _ISENDSTR
  C:6EA0H         SYMBOL        L?0197
  -------         PROC          L?0196
  -------         ENDPROC       L?0196
  C:6EA0H         SYMBOL        L?0197
  -------         PROC          _IRCVSTR
  X:05C8H         SYMBOL        sla
  D:0004H         SYMBOL        suba
  D:0001H         SYMBOL        s
  X:05CEH         SYMBOL        no
  -------         DO            
  D:0005H         SYMBOL        i
  -------         ENDDO         
  C:6EA8H         LINE#         230
  C:6EADH         LINE#         231
  C:6EADH         LINE#         233
  C:6EB0H         LINE#         234
  C:6EB5H         LINE#         235
  C:6EBAH         LINE#         236
  C:6EBFH         LINE#         237
  C:6EC4H         LINE#         238
  C:6EC9H         LINE#         239
  C:6ECEH         LINE#         240
  C:6ED1H         LINE#         241
  C:6EDAH         LINE#         242
  C:6EDFH         LINE#         243
  C:6EECH         LINE#         244
  C:6EECH         LINE#         245
  C:6EF3H         LINE#         246
  C:6EF6H         LINE#         247
  C:6EFDH         LINE#         248
  C:6F00H         LINE#         249
  C:6F07H         LINE#         250
  C:6F0AH         LINE#         251
  C:6F0DH         LINE#         252
BL51 BANKED LINKER/LOCATER V6.22                                                      03/10/2016  16:30:11  PAGE 147


  C:6F0EH         LINE#         253
  -------         ENDPROC       _IRCVSTR
  -------         PROC          _REGISTER_CALL_FUNCTION
  X:05ACH         SYMBOL        pRF
  -------         DO            
  X:05AFH         SYMBOL        addr
  X:05B1H         SYMBOL        i
  X:05B3H         SYMBOL        RFtmp
  X:05BBH         SYMBOL        tmp
  -------         ENDDO         
  C:58E0H         LINE#         255
  C:58EBH         LINE#         256
  C:58EBH         LINE#         260
  C:58F2H         LINE#         261
  C:58FAH         LINE#         263
  C:58FFH         LINE#         264
  C:58FFH         LINE#         265
  C:5909H         LINE#         267
  C:5918H         LINE#         268
  C:5918H         LINE#         270
  C:591EH         LINE#         271
  C:591EH         LINE#         272
  C:5934H         LINE#         273
  C:5950H         LINE#         274
  C:5950H         LINE#         276
  C:5975H         LINE#         277
  C:5975H         LINE#         278
  C:5987H         LINE#         279
  C:598CH         LINE#         280
  C:598FH         LINE#         281
  C:5991H         LINE#         282
  C:5991H         LINE#         283
  C:5991H         LINE#         285
  C:5991H         LINE#         286
  C:59AAH         LINE#         287
  C:59AAH         LINE#         288
  C:59B8H         LINE#         289
  C:59D2H         LINE#         290
  C:59E8H         LINE#         291
  C:59F2H         LINE#         292
  C:59F2H         LINE#         293
  C:59F9H         LINE#         294
  C:59FBH         LINE#         296
  C:59FBH         LINE#         297
  C:5A02H         LINE#         298
  C:5A04H         LINE#         299
  C:5A04H         LINE#         301
  C:5A05H         LINE#         302
  -------         ENDPROC       _REGISTER_CALL_FUNCTION
  -------         PROC          _REGISTER_HOST_FUNCTION
  X:05ACH         SYMBOL        pRF
  -------         DO            
  X:05AFH         SYMBOL        addr
  X:05B1H         SYMBOL        i
  X:05B3H         SYMBOL        RFtmp
  X:05BBH         SYMBOL        tmp
  -------         ENDDO         
BL51 BANKED LINKER/LOCATER V6.22                                                      03/10/2016  16:30:11  PAGE 148


  C:5559H         LINE#         305
  C:5564H         LINE#         306
  C:5564H         LINE#         310
  C:556BH         LINE#         311
  C:5575H         LINE#         313
  C:557AH         LINE#         314
  C:557AH         LINE#         315
  C:5584H         LINE#         318
  C:5593H         LINE#         319
  C:5593H         LINE#         321
  C:5599H         LINE#         322
  C:5599H         LINE#         323
  C:55AFH         LINE#         324
  C:55CBH         LINE#         325
  C:55CBH         LINE#         327
  C:55F0H         LINE#         328
  C:55F0H         LINE#         329
  C:5602H         LINE#         330
  C:5607H         LINE#         331
  C:560DH         LINE#         332
  C:560FH         LINE#         333
  C:560FH         LINE#         334
  C:560FH         LINE#         336
  C:560FH         LINE#         337
  C:5628H         LINE#         338
  C:5628H         LINE#         339
  C:5636H         LINE#         340
  C:5656H         LINE#         341
  C:566CH         LINE#         343
  C:5676H         LINE#         344
  C:5676H         LINE#         345
  C:567DH         LINE#         346
  C:567FH         LINE#         348
  C:567FH         LINE#         349
  C:5686H         LINE#         350
  C:5688H         LINE#         351
  C:5688H         LINE#         352
  C:5689H         LINE#         353
  -------         ENDPROC       _REGISTER_HOST_FUNCTION
  -------         PROC          _REGISTER_ALARM_FUNCTION
  X:05ACH         SYMBOL        pRF
  -------         DO            
  X:05AFH         SYMBOL        addr
  X:05B1H         SYMBOL        i
  X:05B3H         SYMBOL        RFtmp
  X:05BBH         SYMBOL        tmp
  -------         ENDDO         
  C:52E9H         LINE#         355
  C:52F4H         LINE#         356
  C:52F4H         LINE#         360
  C:52FBH         LINE#         361
  C:5305H         LINE#         363
  C:530AH         LINE#         364
  C:530AH         LINE#         365
  C:531BH         LINE#         368
  C:532AH         LINE#         369
  C:532AH         LINE#         371
BL51 BANKED LINKER/LOCATER V6.22                                                      03/10/2016  16:30:11  PAGE 149


  C:5330H         LINE#         372
  C:5330H         LINE#         373
  C:5346H         LINE#         374
  C:5362H         LINE#         375
  C:5362H         LINE#         377
  C:5387H         LINE#         378
  C:5387H         LINE#         379
  C:5399H         LINE#         380
  C:539EH         LINE#         381
  C:53A4H         LINE#         382
  C:53A6H         LINE#         383
  C:53A6H         LINE#         384
  C:53A6H         LINE#         386
  C:53A6H         LINE#         387
  C:53BFH         LINE#         388
  C:53BFH         LINE#         389
  C:53CDH         LINE#         390
  C:53EDH         LINE#         391
  C:5403H         LINE#         393
  C:540DH         LINE#         394
  C:540DH         LINE#         395
  C:5414H         LINE#         396
  C:5416H         LINE#         398
  C:5416H         LINE#         399
  C:541DH         LINE#         400
  C:541FH         LINE#         401
  C:541FH         LINE#         402
  C:5420H         LINE#         403
  -------         ENDPROC       _REGISTER_ALARM_FUNCTION
  -------         PROC          _REGISTER_CANCEL_FUNCTION
  X:05ACH         SYMBOL        pRF
  -------         DO            
  X:05AFH         SYMBOL        addr
  X:05B1H         SYMBOL        i
  X:05B3H         SYMBOL        RFtmp
  X:05BBH         SYMBOL        tmp
  -------         ENDDO         
  C:5421H         LINE#         405
  C:542CH         LINE#         406
  C:542CH         LINE#         410
  C:5433H         LINE#         411
  C:543DH         LINE#         413
  C:5442H         LINE#         414
  C:5442H         LINE#         415
  C:5453H         LINE#         418
  C:5462H         LINE#         419
  C:5462H         LINE#         421
  C:5468H         LINE#         422
  C:5468H         LINE#         423
  C:547EH         LINE#         424
  C:549AH         LINE#         425
  C:549AH         LINE#         427
  C:54BFH         LINE#         428
  C:54BFH         LINE#         429
  C:54D1H         LINE#         430
  C:54D6H         LINE#         431
  C:54DCH         LINE#         432
BL51 BANKED LINKER/LOCATER V6.22                                                      03/10/2016  16:30:11  PAGE 150


  C:54DEH         LINE#         433
  C:54DEH         LINE#         434
  C:54DEH         LINE#         436
  C:54DEH         LINE#         437
  C:54F7H         LINE#         438
  C:54F7H         LINE#         439
  C:5505H         LINE#         440
  C:5525H         LINE#         441
  C:553BH         LINE#         443
  C:5545H         LINE#         444
  C:5545H         LINE#         445
  C:554CH         LINE#         446
  C:554EH         LINE#         448
  C:554EH         LINE#         449
  C:5555H         LINE#         450
  C:5557H         LINE#         451
  C:5557H         LINE#         452
  C:5558H         LINE#         453
  -------         ENDPROC       _REGISTER_CANCEL_FUNCTION
  -------         PROC          _DELETE_CALL_FUNCTION
  X:058FH         SYMBOL        buf
  -------         DO            
  X:0592H         SYMBOL        RFtmp
  X:059AH         SYMBOL        addr
  X:059CH         SYMBOL        i
  X:059EH         SYMBOL        dofly
  -------         ENDDO         
  C:5C4EH         LINE#         455
  C:5C59H         LINE#         456
  C:5C59H         LINE#         458
  C:5C62H         LINE#         460
  C:5C74H         LINE#         461
  C:5C8DH         LINE#         462
  C:5C8DH         LINE#         463
  C:5CA6H         LINE#         464
  C:5CA6H         LINE#         465
  C:5CC8H         LINE#         466
  C:5CCBH         LINE#         467
  C:5CDBH         LINE#         469
  C:5CDBH         LINE#         471
  C:5CDBH         LINE#         472
  C:5CE2H         LINE#         473
  C:5CE2H         LINE#         474
  C:5CF3H         LINE#         476
  C:5CFFH         LINE#         477
  C:5CFFH         LINE#         478
  C:5D21H         LINE#         479
  C:5D21H         LINE#         480
  C:5D2FH         LINE#         481
  C:5D39H         LINE#         483
  C:5D3BH         LINE#         484
  C:5D3BH         LINE#         485
  C:5D3BH         LINE#         486
  C:5D49H         LINE#         487
  C:5D60H         LINE#         488
  C:5D60H         LINE#         489
  C:5D61H         LINE#         490
BL51 BANKED LINKER/LOCATER V6.22                                                      03/10/2016  16:30:11  PAGE 151


  -------         ENDPROC       _DELETE_CALL_FUNCTION
  -------         PROC          _DELETE_HOST_FUNCTION
  X:058FH         SYMBOL        buf
  -------         DO            
  X:0592H         SYMBOL        RFtmp
  X:059AH         SYMBOL        addr
  X:059CH         SYMBOL        i
  X:059EH         SYMBOL        dofly
  -------         ENDDO         
  C:5B2AH         LINE#         492
  C:5B35H         LINE#         493
  C:5B35H         LINE#         495
  C:5B3FH         LINE#         497
  C:5B51H         LINE#         498
  C:5B6AH         LINE#         499
  C:5B6AH         LINE#         500
  C:5B83H         LINE#         501
  C:5B83H         LINE#         502
  C:5BABH         LINE#         503
  C:5BAEH         LINE#         504
  C:5BBEH         LINE#         506
  C:5BBEH         LINE#         508
  C:5BBEH         LINE#         509
  C:5BC5H         LINE#         510
  C:5BC5H         LINE#         511
  C:5BD6H         LINE#         513
  C:5BE2H         LINE#         514
  C:5BE2H         LINE#         515
  C:5C04H         LINE#         516
  C:5C04H         LINE#         517
  C:5C12H         LINE#         518
  C:5C1CH         LINE#         520
  C:5C1EH         LINE#         521
  C:5C1EH         LINE#         522
  C:5C1EH         LINE#         523
  C:5C2CH         LINE#         524
  C:5C4CH         LINE#         525
  C:5C4CH         LINE#         526
  C:5C4DH         LINE#         527
  -------         ENDPROC       _DELETE_HOST_FUNCTION
  -------         PROC          _DELETE_ALARM_FUNCTION
  X:058FH         SYMBOL        buf
  -------         DO            
  X:0592H         SYMBOL        RFtmp
  X:059AH         SYMBOL        addr
  X:059CH         SYMBOL        i
  X:059EH         SYMBOL        dofly
  -------         ENDDO         
  C:568AH         LINE#         529
  C:5695H         LINE#         530
  C:5695H         LINE#         532
  C:569FH         LINE#         534
  C:56B1H         LINE#         535
  C:56CAH         LINE#         536
  C:56CAH         LINE#         537
  C:56E3H         LINE#         538
  C:56E3H         LINE#         539
BL51 BANKED LINKER/LOCATER V6.22                                                      03/10/2016  16:30:11  PAGE 152


  C:570BH         LINE#         540
  C:570EH         LINE#         541
  C:571EH         LINE#         543
  C:571EH         LINE#         545
  C:571EH         LINE#         546
  C:5725H         LINE#         547
  C:5725H         LINE#         548
  C:5736H         LINE#         550
  C:5742H         LINE#         551
  C:5742H         LINE#         552
  C:5764H         LINE#         553
  C:5764H         LINE#         554
  C:5772H         LINE#         555
  C:5783H         LINE#         557
  C:5785H         LINE#         558
  C:5785H         LINE#         559
  C:5785H         LINE#         560
  C:5793H         LINE#         561
  C:57B3H         LINE#         562
  C:57B3H         LINE#         563
  C:57B4H         LINE#         564
  -------         ENDPROC       _DELETE_ALARM_FUNCTION
  -------         PROC          _DELETE_CANCEL_FUNCTION
  X:058FH         SYMBOL        buf
  -------         DO            
  X:0592H         SYMBOL        RFtmp
  X:059AH         SYMBOL        addr
  X:059CH         SYMBOL        i
  X:059EH         SYMBOL        dofly
  -------         ENDDO         
  C:57B5H         LINE#         566
  C:57C0H         LINE#         567
  C:57C0H         LINE#         569
  C:57CAH         LINE#         571
  C:57DCH         LINE#         572
  C:57F5H         LINE#         573
  C:57F5H         LINE#         574
  C:580EH         LINE#         575
  C:580EH         LINE#         576
  C:5836H         LINE#         577
  C:5839H         LINE#         578
  C:5849H         LINE#         580
  C:5849H         LINE#         582
  C:5849H         LINE#         583
  C:5850H         LINE#         584
  C:5850H         LINE#         585
  C:5861H         LINE#         587
  C:586DH         LINE#         588
  C:586DH         LINE#         589
  C:588FH         LINE#         590
  C:588FH         LINE#         591
  C:589DH         LINE#         592
  C:58AEH         LINE#         594
  C:58B0H         LINE#         595
  C:58B0H         LINE#         596
  C:58B0H         LINE#         597
  C:58BEH         LINE#         598
BL51 BANKED LINKER/LOCATER V6.22                                                      03/10/2016  16:30:11  PAGE 153


  C:58DEH         LINE#         599
  C:58DEH         LINE#         600
  C:58DFH         LINE#         601
  -------         ENDPROC       _DELETE_CANCEL_FUNCTION
  -------         PROC          DELETE_ALL_DATA
  -------         DO            
  X:058FH         SYMBOL        dofly
  X:05AFH         SYMBOL        k
  -------         ENDDO         
  C:709FH         LINE#         603
  C:709FH         LINE#         604
  C:709FH         LINE#         633
  C:70B2H         LINE#         635
  C:70C9H         LINE#         636
  C:70C9H         LINE#         637
  C:70E7H         LINE#         638
  C:70EAH         LINE#         639
  C:70FAH         LINE#         640
  -------         ENDPROC       DELETE_ALL_DATA
  -------         PROC          _FIND_RF_EEPROM_CALL
  X:05B3H         SYMBOL        p
  X:05B6H         SYMBOL        dat
  -------         DO            
  X:05BAH         SYMBOL        RFtmp
  X:05C2H         SYMBOL        addr
  X:05C4H         SYMBOL        i
  -------         ENDDO         
  C:627FH         LINE#         643
  C:628EH         LINE#         644
  C:628EH         LINE#         648
  C:6297H         LINE#         650
  C:629CH         LINE#         651
  C:629CH         LINE#         652
  C:62ADH         LINE#         655
  C:62B3H         LINE#         656
  C:62B3H         LINE#         657
  C:62C9H         LINE#         658
  C:62DFH         LINE#         659
  C:62DFH         LINE#         661
  C:6301H         LINE#         662
  C:6301H         LINE#         663
  C:631DH         LINE#         664
  C:6320H         LINE#         665
  C:6320H         LINE#         666
  C:632EH         LINE#         667
  C:6348H         LINE#         668
  C:634AH         LINE#         669
  -------         ENDPROC       _FIND_RF_EEPROM_CALL
  -------         PROC          _FIND_RF_EEPROM_HOST
  X:05B5H         SYMBOL        p
  X:05B8H         SYMBOL        dat
  -------         DO            
  X:05BCH         SYMBOL        RFtmp
  X:05C4H         SYMBOL        addr
  X:05C6H         SYMBOL        i
  -------         ENDDO         
  C:5F36H         LINE#         671
BL51 BANKED LINKER/LOCATER V6.22                                                      03/10/2016  16:30:11  PAGE 154


  C:5F45H         LINE#         672
  C:5F45H         LINE#         676
  C:5F4FH         LINE#         678
  C:5F54H         LINE#         679
  C:5F54H         LINE#         680
  C:5F65H         LINE#         683
  C:5F6BH         LINE#         684
  C:5F6BH         LINE#         685
  C:5F81H         LINE#         686
  C:5F97H         LINE#         687
  C:5F97H         LINE#         689
  C:5FB9H         LINE#         690
  C:5FB9H         LINE#         691
  C:5FD5H         LINE#         692
  C:5FD8H         LINE#         693
  C:5FD8H         LINE#         694
  C:5FE6H         LINE#         695
  C:6006H         LINE#         696
  C:6008H         LINE#         697
  -------         ENDPROC       _FIND_RF_EEPROM_HOST
  -------         PROC          _FIND_RF_EEPROM_ALARM
  X:05B3H         SYMBOL        p
  X:05B6H         SYMBOL        dat
  -------         DO            
  X:05BAH         SYMBOL        RFtmp
  X:05C2H         SYMBOL        addr
  X:05C4H         SYMBOL        i
  -------         ENDDO         
  C:6009H         LINE#         699
  C:6018H         LINE#         700
  C:6018H         LINE#         704
  C:6022H         LINE#         706
  C:6027H         LINE#         707
  C:6027H         LINE#         708
  C:6038H         LINE#         711
  C:603EH         LINE#         712
  C:603EH         LINE#         713
  C:6054H         LINE#         714
  C:606AH         LINE#         715
  C:606AH         LINE#         717
  C:608CH         LINE#         718
  C:608CH         LINE#         719
  C:60A8H         LINE#         720
  C:60ABH         LINE#         721
  C:60ABH         LINE#         722
  C:60B9H         LINE#         723
  C:60D9H         LINE#         724
  C:60DBH         LINE#         725
  -------         ENDPROC       _FIND_RF_EEPROM_ALARM
  -------         PROC          _FIND_RF_EEPROM_CANCEL
  X:05B3H         SYMBOL        p
  X:05B6H         SYMBOL        dat
  -------         DO            
  X:05BAH         SYMBOL        RFtmp
  X:05C2H         SYMBOL        addr
  X:05C4H         SYMBOL        i
  -------         ENDDO         
BL51 BANKED LINKER/LOCATER V6.22                                                      03/10/2016  16:30:11  PAGE 155


  C:60DCH         LINE#         727
  C:60EBH         LINE#         728
  C:60EBH         LINE#         732
  C:60F5H         LINE#         734
  C:60FAH         LINE#         735
  C:60FAH         LINE#         736
  C:610BH         LINE#         739
  C:6111H         LINE#         740
  C:6111H         LINE#         741
  C:6127H         LINE#         742
  C:613DH         LINE#         743
  C:613DH         LINE#         745
  C:615FH         LINE#         746
  C:615FH         LINE#         747
  C:617BH         LINE#         748
  C:617EH         LINE#         749
  C:617EH         LINE#         750
  C:618CH         LINE#         751
  C:61ACH         LINE#         752
  C:61AEH         LINE#         753
  -------         ENDPROC       _FIND_RF_EEPROM_CANCEL
  -------         PROC          _FIND_RF_EEPROM
  X:05ACH         SYMBOL        p
  X:05AFH         SYMBOL        dat
  C:6F78H         LINE#         755
  C:6F89H         LINE#         756
  C:6F89H         LINE#         757
  C:6F9BH         LINE#         758
  C:6F9BH         LINE#         759
  C:6F9EH         LINE#         760
  C:6F9EH         LINE#         761
  C:6FBBH         LINE#         762
  C:6FBBH         LINE#         763
  C:6FBEH         LINE#         764
  C:6FBEH         LINE#         765
  C:6FDBH         LINE#         766
  C:6FDBH         LINE#         767
  C:6FDEH         LINE#         768
  C:6FDEH         LINE#         770
  C:6FDEH         LINE#         771
  C:6FE0H         LINE#         772
  C:6FE0H         LINE#         773
  -------         ENDPROC       _FIND_RF_EEPROM
  -------         ENDMOD        AT24C256

  -------         MODULE        GD5800
  C:0000H         SYMBOL        _ICE_DUMMY_
  D:0080H         PUBLIC        P0
  D:0090H         PUBLIC        P1
  D:00A0H         PUBLIC        P2
  D:00B0H         PUBLIC        P3
  D:00C0H         PUBLIC        P4
  D:00C8H         PUBLIC        P5
  D:00E8H         PUBLIC        P6
  D:00F8H         PUBLIC        P7
  C:83A1H         PUBLIC        GD5800_stop_music
  C:7978H         PUBLIC        _GD5800_select_chapter
BL51 BANKED LINKER/LOCATER V6.22                                                      03/10/2016  16:30:11  PAGE 156


  D:00A8H         PUBLIC        IE
  D:00B8H         PUBLIC        IP
  D:00D8H         PUBLIC        CCON
  C:82DBH         PUBLIC        GD5800_initialization
  C:4F30H         PUBLIC        _submenuf6_1_voiceselect
  C:37EAH         PUBLIC        _submenuf6_1
  D:0098H         PUBLIC        SCON
  D:0088H         PUBLIC        TCON
  C:77C1H         PUBLIC        _GD5800_select_chapter_new
  C:80ACH         PUBLIC        _GD5800_sound_volume
  C:83B5H         PUBLIC        GD5800_play_music
  D:00D0H         PUBLIC        PSW
  -------         PROC          GD5800_INITIALIZATION
  C:82DBH         LINE#         6
  C:82DBH         LINE#         7
  C:82DBH         LINE#         9
  C:82E0H         LINE#         10
  C:82E5H         LINE#         11
  C:82EAH         LINE#         12
  C:82EFH         LINE#         13
  -------         ENDPROC       GD5800_INITIALIZATION
  -------         PROC          L?0100
  -------         ENDPROC       L?0100
  -------         PROC          _GD5800_SELECT_CHAPTER
  X:05CFH         SYMBOL        chapter_number
  C:7978H         LINE#         17
  C:7980H         LINE#         18
  C:7980H         LINE#         19
  C:7985H         LINE#         20
  C:798AH         LINE#         21
  C:798FH         LINE#         22
  C:7997H         LINE#         23
  C:79A0H         LINE#         24
  -------         ENDPROC       _GD5800_SELECT_CHAPTER
  -------         PROC          _GD5800_SOUND_VOLUME
  X:0589H         SYMBOL        volume
  C:80ACH         LINE#         28
  C:80B1H         LINE#         29
  C:80B1H         LINE#         30
  C:80B6H         LINE#         31
  C:80BBH         LINE#         32
  C:80C0H         LINE#         33
  C:80C8H         LINE#         34
  -------         ENDPROC       _GD5800_SOUND_VOLUME
  -------         PROC          GD5800_STOP_MUSIC
  C:83A1H         LINE#         38
  C:83A1H         LINE#         39
  C:83A1H         LINE#         40
  C:83A6H         LINE#         41
  C:83ABH         LINE#         42
  C:83B0H         LINE#         43
  -------         ENDPROC       GD5800_STOP_MUSIC
  -------         PROC          GD5800_PLAY_MUSIC
  C:83B5H         LINE#         46
  C:83B5H         LINE#         47
  C:83B5H         LINE#         48
  C:83BAH         LINE#         49
BL51 BANKED LINKER/LOCATER V6.22                                                      03/10/2016  16:30:11  PAGE 157


  C:83BFH         LINE#         50
  C:83C4H         LINE#         51
  -------         ENDPROC       GD5800_PLAY_MUSIC
  -------         PROC          L?0099
  -------         ENDPROC       L?0099
  -------         PROC          _SUBMENUF6_1_VOICESELECT
  X:05CBH         SYMBOL        report_mode
  D:0001H         SYMBOL        report_number
  -------         DO            
  X:05CCH         SYMBOL        number
  -------         ENDDO         
  C:4F30H         LINE#         54
  C:4F35H         LINE#         55
  C:4F35H         LINE#         57
  C:4F3EH         LINE#         58
  C:4F47H         LINE#         59
  C:4F47H         LINE#         60
  C:4F4FH         LINE#         61
  C:4F4FH         LINE#         62
  C:4F64H         LINE#         63
  C:4F66H         LINE#         65
  C:4F66H         LINE#         66
  C:4F79H         LINE#         67
  C:4F79H         LINE#         68
  C:4F7CH         LINE#         69
  C:4F83H         LINE#         70
  C:4F8AH         LINE#         71
  C:4F8AH         LINE#         72
  C:4F8AH         LINE#         74
  C:4F93H         LINE#         75
  C:4F93H         LINE#         76
  C:4FA4H         LINE#         77
  C:4FA6H         LINE#         79
  C:4FA6H         LINE#         80
  C:4FB9H         LINE#         81
  C:4FB9H         LINE#         82
  C:4FBDH         LINE#         83
  C:4FBDH         LINE#         84
  C:4FC5H         LINE#         85
  C:4FC5H         LINE#         86
  C:4FC7H         LINE#         87
  C:4FC9H         LINE#         89
  C:4FC9H         LINE#         90
  C:4FDFH         LINE#         91
  C:4FDFH         LINE#         92
  C:4FE1H         LINE#         94
  C:4FE1H         LINE#         95
  C:4FFBH         LINE#         96
  C:4FFBH         LINE#         97
  C:4FFBH         LINE#         98
  C:4FFBH         LINE#         100
  C:5004H         LINE#         101
  C:5004H         LINE#         102
  C:5013H         LINE#         103
  C:5015H         LINE#         105
  C:5015H         LINE#         106
  C:5033H         LINE#         107
BL51 BANKED LINKER/LOCATER V6.22                                                      03/10/2016  16:30:11  PAGE 158


  C:5033H         LINE#         108
  C:503AH         LINE#         110
  C:503AH         LINE#         111
  C:503AH         LINE#         112
  C:503CH         LINE#         115
  C:503CH         LINE#         116
  C:504EH         LINE#         117
  C:504EH         LINE#         118
  C:504EH         LINE#         119
  C:5052H         LINE#         120
  C:5054H         LINE#         121
  C:5054H         LINE#         122
  C:5058H         LINE#         123
  C:505AH         LINE#         124
  C:505AH         LINE#         125
  C:505EH         LINE#         126
  C:5060H         LINE#         127
  C:5060H         LINE#         128
  C:5067H         LINE#         129
  C:5067H         LINE#         130
  C:5067H         LINE#         131
  C:5067H         LINE#         132
  C:5067H         LINE#         133
  -------         ENDPROC       _SUBMENUF6_1_VOICESELECT
  -------         PROC          _SUBMENUF6_1
  X:05BAH         SYMBOL        report_mode
  X:05BBH         SYMBOL        report_number
  X:05BEH         SYMBOL        call_type
  X:05C0H         SYMBOL        key_value
  -------         DO            
  X:05C1H         SYMBOL        mode
  X:05C3H         SYMBOL        number
  X:05C6H         SYMBOL        type
  X:05C8H         SYMBOL        key
  X:05C9H         SYMBOL        Two_Menu_F7_E1_temp
  X:05CAH         SYMBOL        Two_Menu_F6_E7_temp
  -------         ENDDO         
  C:37EAH         LINE#         153
  C:37F8H         LINE#         154
  C:37F8H         LINE#         159
  C:37FDH         LINE#         160
  C:37FFH         LINE#         161
  C:3807H         LINE#         162
  C:380FH         LINE#         163
  C:381EH         LINE#         164
  C:3833H         LINE#         165
  C:3842H         LINE#         166
  C:384AH         LINE#         167
  C:3856H         LINE#         168
  C:3856H         LINE#         169
  C:385BH         LINE#         171
  C:3862H         LINE#         172
  C:3862H         LINE#         173
  C:3869H         LINE#         174
  C:3869H         LINE#         176
  C:3881H         LINE#         177
  C:3881H         LINE#         178
BL51 BANKED LINKER/LOCATER V6.22                                                      03/10/2016  16:30:11  PAGE 159


  C:3888H         LINE#         179
  C:3888H         LINE#         181
  C:3893H         LINE#         182
  C:3893H         LINE#         184
  C:38AAH         LINE#         185
  C:38AAH         LINE#         186
  C:38B2H         LINE#         187
  C:38B2H         LINE#         188
  C:38B5H         LINE#         189
  C:38B7H         LINE#         191
  C:38B7H         LINE#         192
  C:38CAH         LINE#         193
  C:38CAH         LINE#         194
  C:38CDH         LINE#         195
  C:38CFH         LINE#         196
  C:38CFH         LINE#         197
  C:38CFH         LINE#         199
  C:38D1H         LINE#         200
  C:38EEH         LINE#         201
  C:38EEH         LINE#         202
  C:38F5H         LINE#         203
  C:38F7H         LINE#         205
  C:38F7H         LINE#         206
  C:3919H         LINE#         207
  C:3919H         LINE#         208
  C:391FH         LINE#         209
  C:3925H         LINE#         210
  C:392BH         LINE#         211
  C:3931H         LINE#         212
  C:3938H         LINE#         213
  C:3938H         LINE#         214
  C:3938H         LINE#         215
  C:3938H         LINE#         217
  C:3938H         LINE#         220
  C:393BH         LINE#         222
  C:394BH         LINE#         223
  C:394BH         LINE#         224
  C:3952H         LINE#         225
  C:3952H         LINE#         227
  C:395DH         LINE#         228
  C:395DH         LINE#         230
  C:3963H         LINE#         232
  C:397AH         LINE#         233
  C:397AH         LINE#         234
  C:397DH         LINE#         235
  C:397FH         LINE#         236
  C:399CH         LINE#         237
  C:399CH         LINE#         238
  C:39A3H         LINE#         239
  C:39A5H         LINE#         241
  C:39A5H         LINE#         242
  C:39C7H         LINE#         243
  C:39C7H         LINE#         244
  C:39CDH         LINE#         245
  C:39D3H         LINE#         246
  C:39D9H         LINE#         247
  C:39DFH         LINE#         248
BL51 BANKED LINKER/LOCATER V6.22                                                      03/10/2016  16:30:11  PAGE 160


  C:39E6H         LINE#         249
  C:39E6H         LINE#         250
  C:39E6H         LINE#         251
  C:39E6H         LINE#         253
  C:39E8H         LINE#         254
  C:39EAH         LINE#         255
  C:39FDH         LINE#         256
  C:39FDH         LINE#         257
  C:3A0DH         LINE#         258
  C:3A0DH         LINE#         259
  C:3A13H         LINE#         260
  C:3A15H         LINE#         261
  C:3A21H         LINE#         262
  C:3A21H         LINE#         263
  C:3A24H         LINE#         264
  C:3A24H         LINE#         265
  C:3A24H         LINE#         266
  C:3A26H         LINE#         268
  C:3A26H         LINE#         269
  C:3A39H         LINE#         270
  C:3A39H         LINE#         271
  C:3A40H         LINE#         272
  C:3A40H         LINE#         274
  C:3A40H         LINE#         275
  C:3A43H         LINE#         276
  C:3A43H         LINE#         277
  C:3A43H         LINE#         278
  -------         ENDPROC       _SUBMENUF6_1
  -------         PROC          _GD5800_SELECT_CHAPTER_NEW
  X:05BDH         SYMBOL        chapter_number
  -------         DO            
  C:77C9H         SYMBOL        tofun94
  -------         ENDDO         
  C:77C1H         LINE#         280
  C:77C9H         LINE#         281
  C:77C9H         LINE#         282
  C:77C9H         LINE#         283
  C:77CFH         LINE#         284
  C:77D4H         LINE#         285
  C:77D8H         LINE#         286
  C:77E3H         LINE#         287
  C:77E6H         LINE#         288
  C:77E9H         LINE#         289
  C:77ECH         LINE#         290
  C:77EFH         LINE#         291
  C:77F6H         LINE#         292
  C:77F6H         LINE#         293
  -------         ENDPROC       _GD5800_SELECT_CHAPTER_NEW
  -------         ENDMOD        GD5800

  -------         MODULE        COM
  C:0000H         SYMBOL        _ICE_DUMMY_
  D:0080H         PUBLIC        P0
  D:0090H         PUBLIC        P1
  D:00A0H         PUBLIC        P2
  D:00B0H         PUBLIC        P3
  D:00C0H         PUBLIC        P4
BL51 BANKED LINKER/LOCATER V6.22                                                      03/10/2016  16:30:11  PAGE 161


  D:00C8H         PUBLIC        P5
  D:00E8H         PUBLIC        P6
  D:00F8H         PUBLIC        P7
  D:00A8H         PUBLIC        IE
  D:00B8H         PUBLIC        IP
  D:00D8H         PUBLIC        CCON
  D:0098H         PUBLIC        SCON
  D:0088H         PUBLIC        TCON
  C:45D4H         PUBLIC        _mcu_to_computer
  D:00D0H         PUBLIC        PSW
  -------         PROC          _MCU_TO_COMPUTER
  X:06ADH         SYMBOL        call_type
  X:06AEH         SYMBOL        number
  X:06B1H         SYMBOL        key_type
  -------         DO            
  X:06B2H         SYMBOL        temp1
  X:06B3H         SYMBOL        temp2
  X:06B4H         SYMBOL        key
  X:06B5H         SYMBOL        sec
  X:06B6H         SYMBOL        hour
  X:06B7H         SYMBOL        min
  -------         ENDDO         
  C:45D4H         LINE#         5
  C:45E2H         LINE#         6
  C:45E2H         LINE#         7
  C:45EBH         LINE#         9
  C:45F1H         LINE#         10
  C:45F4H         LINE#         12
  C:45F9H         LINE#         13
  C:45FEH         LINE#         14
  C:4603H         LINE#         15
  C:4608H         LINE#         16
  C:460DH         LINE#         17
  C:4615H         LINE#         18
  C:461AH         LINE#         20
  C:463BH         LINE#         21
  C:4650H         LINE#         22
  C:4653H         LINE#         23
  C:465BH         LINE#         25
  C:46A3H         LINE#         26
  C:46A3H         LINE#         27
  C:46A3H         LINE#         28
  C:46A8H         LINE#         29
  C:46A8H         LINE#         30
  C:46AAH         LINE#         31
  C:46AAH         LINE#         32
  C:46AFH         LINE#         33
  C:46AFH         LINE#         34
  C:46B1H         LINE#         35
  C:46B1H         LINE#         36
  C:46B6H         LINE#         37
  C:46B6H         LINE#         38
  C:46B8H         LINE#         39
  C:46B8H         LINE#         40
  C:46BDH         LINE#         41
  C:46BDH         LINE#         42
  C:46BFH         LINE#         43
BL51 BANKED LINKER/LOCATER V6.22                                                      03/10/2016  16:30:11  PAGE 162


  C:46BFH         LINE#         44
  C:46C4H         LINE#         45
  C:46C4H         LINE#         46
  C:46C6H         LINE#         47
  C:46C6H         LINE#         48
  C:46CBH         LINE#         49
  C:46CBH         LINE#         50
  C:46CDH         LINE#         51
  C:46CDH         LINE#         52
  C:46D2H         LINE#         53
  C:46D2H         LINE#         54
  C:46D4H         LINE#         55
  C:46D4H         LINE#         56
  C:46D9H         LINE#         57
  C:46D9H         LINE#         58
  C:46DBH         LINE#         59
  C:46DBH         LINE#         60
  C:46E0H         LINE#         61
  C:46E0H         LINE#         62
  C:46E2H         LINE#         63
  C:46E2H         LINE#         64
  C:46E7H         LINE#         65
  C:46E7H         LINE#         66
  C:46E9H         LINE#         67
  C:46E9H         LINE#         68
  C:46EEH         LINE#         69
  C:46EEH         LINE#         70
  C:46F0H         LINE#         71
  C:46F0H         LINE#         72
  C:46F5H         LINE#         73
  C:46F5H         LINE#         74
  C:46F7H         LINE#         75
  C:46F7H         LINE#         76
  C:46FCH         LINE#         77
  C:46FCH         LINE#         78
  C:46FEH         LINE#         79
  C:46FEH         LINE#         80
  C:4703H         LINE#         81
  C:4703H         LINE#         82
  C:4705H         LINE#         83
  C:4705H         LINE#         84
  C:470AH         LINE#         85
  C:470AH         LINE#         86
  C:470CH         LINE#         87
  C:470CH         LINE#         88
  C:4711H         LINE#         89
  C:4715H         LINE#         90
  C:4715H         LINE#         91
  C:4715H         LINE#         96
  C:471AH         LINE#         97
  C:471FH         LINE#         99
  C:4734H         LINE#         100
  C:4748H         LINE#         101
  C:475CH         LINE#         103
  C:4761H         LINE#         104
  C:4769H         LINE#         105
  C:4771H         LINE#         107
BL51 BANKED LINKER/LOCATER V6.22                                                      03/10/2016  16:30:11  PAGE 163


  C:4799H         LINE#         110
  -------         ENDPROC       _MCU_TO_COMPUTER
  -------         ENDMOD        COM

  -------         MODULE        PRINTER
  C:0000H         SYMBOL        _ICE_DUMMY_
  D:0080H         PUBLIC        P0
  D:0090H         PUBLIC        P1
  D:00A0H         PUBLIC        P2
  D:00B0H         PUBLIC        P3
  D:00C0H         PUBLIC        P4
  D:00C8H         PUBLIC        P5
  D:00E8H         PUBLIC        P6
  D:00F8H         PUBLIC        P7
  D:00A8H         PUBLIC        IE
  D:00B8H         PUBLIC        IP
  D:00D8H         PUBLIC        CCON
  C:830BH         PUBLIC        _printer58mm_setmode
  D:0098H         PUBLIC        SCON
  D:0088H         PUBLIC        TCON
  C:4407H         PUBLIC        printer58mm_print
  D:00D0H         PUBLIC        PSW
  -------         PROC          PRINTER58MM_PRINT
  -------         DO            
  X:0588H         SYMBOL        i
  X:0589H         SYMBOL        temp
  -------         ENDDO         
  C:4407H         LINE#         30
  C:4407H         LINE#         31
  C:4407H         LINE#         32
  C:440EH         LINE#         34
  C:4413H         LINE#         35
  C:4418H         LINE#         38
  C:441DH         LINE#         39
  C:4422H         LINE#         40
  C:4427H         LINE#         42
  C:442CH         LINE#         43
  C:4431H         LINE#         44
  C:4436H         LINE#         45
  C:443BH         LINE#         46
  C:4440H         LINE#         47
  C:4445H         LINE#         48
  C:444AH         LINE#         50
  C:444FH         LINE#         51
  C:4454H         LINE#         53
  C:4459H         LINE#         54
  C:445EH         LINE#         55
  C:4463H         LINE#         57
  C:4468H         LINE#         58
  C:446DH         LINE#         59
  C:4472H         LINE#         60
  C:4477H         LINE#         62
  C:448DH         LINE#         63
  C:4492H         LINE#         64
  C:44B5H         LINE#         65
  C:44BAH         LINE#         66
  C:44D0H         LINE#         67
BL51 BANKED LINKER/LOCATER V6.22                                                      03/10/2016  16:30:11  PAGE 164


  C:44D5H         LINE#         69
  C:44DAH         LINE#         70
  C:44DFH         LINE#         71
  C:44E4H         LINE#         73
  C:44E9H         LINE#         74
  C:44EEH         LINE#         76
  C:44F3H         LINE#         77
  C:44F8H         LINE#         78
  C:44FDH         LINE#         79
  C:4502H         LINE#         80
  C:4507H         LINE#         81
  C:450CH         LINE#         82
  C:4511H         LINE#         83
  C:4516H         LINE#         84
  C:451BH         LINE#         85
  C:4520H         LINE#         86
  C:4525H         LINE#         87
  C:452AH         LINE#         89
  C:4547H         LINE#         90
  C:4547H         LINE#         91
  C:4548H         LINE#         92
  C:454AH         LINE#         94
  C:454AH         LINE#         95
  C:4552H         LINE#         96
  C:4552H         LINE#         97
  C:4560H         LINE#         98
  C:4574H         LINE#         99
  C:4584H         LINE#         102
  C:4589H         LINE#         104
  C:458EH         LINE#         105
  C:4593H         LINE#         106
  C:4598H         LINE#         108
  C:459DH         LINE#         109
  C:45A2H         LINE#         110
  C:45A7H         LINE#         112
  C:45ACH         LINE#         113
  C:45B1H         LINE#         114
  C:45B6H         LINE#         116
  C:45BBH         LINE#         117
  C:45C0H         LINE#         118
  C:45C5H         LINE#         120
  C:45CAH         LINE#         121
  C:45CFH         LINE#         122
  -------         ENDPROC       PRINTER58MM_PRINT
  -------         PROC          _PRINTER58MM_SETMODE
  X:06D0H         SYMBOL        mode
  C:830BH         LINE#         130
  C:8310H         LINE#         131
  C:8310H         LINE#         132
  C:8315H         LINE#         133
  C:831AH         LINE#         134
  -------         ENDPROC       _PRINTER58MM_SETMODE
  -------         ENDMOD        PRINTER

  -------         MODULE        PCA
  C:0000H         SYMBOL        _ICE_DUMMY_
  D:0080H         PUBLIC        P0
BL51 BANKED LINKER/LOCATER V6.22                                                      03/10/2016  16:30:11  PAGE 165


  D:0090H         PUBLIC        P1
  D:00A0H         PUBLIC        P2
  D:00B0H         PUBLIC        P3
  D:00C0H         PUBLIC        P4
  C:7527H         PUBLIC        PCA_isr
  D:00C8H         PUBLIC        P5
  B:00A8H.7       PUBLIC        EA
  D:00E8H         PUBLIC        P6
  D:00F8H         PUBLIC        P7
  D:00F9H         PUBLIC        CH
  D:00A2H         PUBLIC        P_SW1
  D:00A8H         PUBLIC        IE
  D:00E9H         PUBLIC        CL
  D:00FAH         PUBLIC        CCAP0H
  D:00EAH         PUBLIC        CCAP0L
  B:00D8H.6       PUBLIC        CR
  D:00DAH         PUBLIC        CCAPM0
  D:00B8H         PUBLIC        IP
  X:06B8H         PUBLIC        flag
  B:0021H.3       PUBLIC        OP
  X:06B9H         PUBLIC        value_send_delay
  X:06BBH         PUBLIC        value
  D:00D9H         PUBLIC        CMOD
  D:00D8H         PUBLIC        CCON
  X:06BDH         PUBLIC        count
  B:0090H.2       PUBLIC        P12
  D:0098H         PUBLIC        SCON
  D:0088H         PUBLIC        TCON
  B:00B0H.5       PUBLIC        P35
  C:3E74H         PUBLIC        _SendIRdata
  D:00E0H         PUBLIC        ACC
  C:74DAH         PUBLIC        pca_timer_init
  X:06BFH         PUBLIC        endcount
  D:00D0H         PUBLIC        PSW
  B:00D8H.0       PUBLIC        CCF0
  -------         PROC          PCA_ISR
  C:7527H         LINE#         12
  C:7532H         LINE#         14
  C:7534H         LINE#         15
  C:753DH         LINE#         16
  C:7540H         LINE#         17
  C:754BH         LINE#         18
  C:7559H         LINE#         19
  C:7560H         LINE#         21
  C:7560H         LINE#         23
  C:7562H         LINE#         25
  C:7564H         LINE#         29
  C:7564H         LINE#         31
  C:7566H         LINE#         33
  C:7566H         LINE#         35
  C:756AH         LINE#         39
  -------         ENDPROC       PCA_ISR
  -------         PROC          PCA_TIMER_INIT
  C:74DAH         LINE#         41
  C:74DAH         LINE#         42
  C:74DAH         LINE#         43
  C:74E1H         LINE#         45
BL51 BANKED LINKER/LOCATER V6.22                                                      03/10/2016  16:30:11  PAGE 166


  C:74E5H         LINE#         47
  C:74E7H         LINE#         49
  C:74E9H         LINE#         51
  C:74EBH         LINE#         53
  C:74EDH         LINE#         54
  C:74EFH         LINE#         55
  C:74F1H         LINE#         57
  C:74F4H         LINE#         61
  C:74F6H         LINE#         62
  C:74F8H         LINE#         63
  C:74FAH         LINE#         65
  C:7502H         LINE#         67
  C:750AH         LINE#         68
  C:7513H         LINE#         69
  C:7516H         LINE#         70
  C:7521H         LINE#         71
  C:7524H         LINE#         73
  C:7526H         LINE#         74
  -------         ENDPROC       PCA_TIMER_INIT
  -------         PROC          _SENDIRDATA
  D:0007H         SYMBOL        id_data_3
  X:0588H         SYMBOL        id_data_2
  X:0589H         SYMBOL        id_data_1
  -------         DO            
  D:0006H         SYMBOL        i
  D:0001H         SYMBOL        id_data
  -------         ENDDO         
  C:3E74H         LINE#         76
  C:3E7CH         LINE#         78
  C:3E7CH         LINE#         86
  C:3E84H         LINE#         88
  C:3E88H         LINE#         89
  C:3E8FH         LINE#         91
  C:3EA4H         LINE#         94
  C:3EADH         LINE#         96
  C:3EB2H         LINE#         98
  C:3EB8H         LINE#         100
  C:3ECDH         LINE#         104
  C:3ECFH         LINE#         106
  C:3ED2H         LINE#         108
  C:3ED2H         LINE#         109
  C:3ED9H         LINE#         111
  C:3ED9H         LINE#         112
  C:3EDFH         LINE#         113
  C:3EE5H         LINE#         114
  C:3EE7H         LINE#         118
  C:3EE7H         LINE#         120
  C:3EECH         LINE#         121
  C:3EF0H         LINE#         122
  C:3EF0H         LINE#         126
  C:3EF7H         LINE#         128
  C:3F0CH         LINE#         130
  C:3F1AH         LINE#         132
  C:3F1FH         LINE#         134
  C:3F25H         LINE#         136
  C:3F3AH         LINE#         138
  C:3F3EH         LINE#         140
BL51 BANKED LINKER/LOCATER V6.22                                                      03/10/2016  16:30:11  PAGE 167


  C:3F49H         LINE#         144
  C:3F4EH         LINE#         146
  C:3F51H         LINE#         148
  C:3F51H         LINE#         149
  C:3F58H         LINE#         151
  C:3F58H         LINE#         153
  C:3F5EH         LINE#         154
  C:3F64H         LINE#         155
  C:3F66H         LINE#         159
  C:3F66H         LINE#         161
  C:3F6BH         LINE#         162
  C:3F6FH         LINE#         163
  C:3F6FH         LINE#         165
  C:3F75H         LINE#         167
  C:3F7CH         LINE#         169
  C:3F91H         LINE#         171
  C:3F9FH         LINE#         173
  C:3FA4H         LINE#         175
  C:3FAAH         LINE#         177
  C:3FBFH         LINE#         179
  C:3FC3H         LINE#         181
  C:3FCEH         LINE#         185
  C:3FD3H         LINE#         187
  C:3FD6H         LINE#         189
  C:3FD6H         LINE#         190
  C:3FDDH         LINE#         192
  C:3FDDH         LINE#         194
  C:3FE3H         LINE#         195
  C:3FE9H         LINE#         196
  C:3FEBH         LINE#         200
  C:3FEBH         LINE#         202
  C:3FF0H         LINE#         203
  C:3FF4H         LINE#         204
  C:3FF4H         LINE#         206
  C:3FFAH         LINE#         208
  C:4001H         LINE#         210
  C:4016H         LINE#         212
  C:4024H         LINE#         214
  C:4029H         LINE#         216
  C:402FH         LINE#         218
  C:4044H         LINE#         220
  C:4048H         LINE#         222
  C:4053H         LINE#         223
  -------         ENDPROC       _SENDIRDATA
  -------         ENDMOD        PCA

  -------         MODULE        ?C?COPY
  C:2A66H         PUBLIC        ?C?COPY
  -------         ENDMOD        ?C?COPY

  -------         MODULE        ?C?CLDPTR
  C:2A8CH         PUBLIC        ?C?CLDPTR
  -------         ENDMOD        ?C?CLDPTR

  -------         MODULE        ?C?CLDOPTR
  C:2AA5H         PUBLIC        ?C?CLDOPTR
  -------         ENDMOD        ?C?CLDOPTR
BL51 BANKED LINKER/LOCATER V6.22                                                      03/10/2016  16:30:11  PAGE 168



  -------         MODULE        ?C?CSTPTR
  C:2AD2H         PUBLIC        ?C?CSTPTR
  -------         ENDMOD        ?C?CSTPTR

  -------         MODULE        ?C?CSTOPTR
  C:2AE4H         PUBLIC        ?C?CSTOPTR
  -------         ENDMOD        ?C?CSTOPTR

  -------         MODULE        ?C?IMUL
  C:2B06H         PUBLIC        ?C?IMUL
  -------         ENDMOD        ?C?IMUL

  -------         MODULE        ?C?UIDIV
  C:2B18H         PUBLIC        ?C?UIDIV
  -------         ENDMOD        ?C?UIDIV

  -------         MODULE        ?C?ILDIX
  C:2B6DH         PUBLIC        ?C?ILDIX
  -------         ENDMOD        ?C?ILDIX

  -------         MODULE        ?C?ULCMP
  C:2B83H         PUBLIC        ?C?ULCMP
  -------         ENDMOD        ?C?ULCMP

  -------         MODULE        ?C?LSHL
  C:2B94H         PUBLIC        ?C?LSHL
  -------         ENDMOD        ?C?LSHL

  -------         MODULE        ?C?LLDPTR
  C:2BA7H         PUBLIC        ?C?LLDPTR
  -------         ENDMOD        ?C?LLDPTR

  -------         MODULE        ?C?LLDOPTR
  C:2BC7H         PUBLIC        ?C?LLDOPTR
  -------         ENDMOD        ?C?LLDOPTR

  -------         MODULE        ?C?LSTPTR
  C:2BF7H         PUBLIC        ?C?LSTPTR
  -------         ENDMOD        ?C?LSTPTR

  -------         MODULE        ?C?LSTXDATA
  C:2C11H         PUBLIC        ?C?LSTXDATA
  -------         ENDMOD        ?C?LSTXDATA

  -------         MODULE        ?C?CCASE
  C:2C1DH         PUBLIC        ?C?CCASE
  -------         ENDMOD        ?C?CCASE

  -------         MODULE        ?C?ICALL
  C:2C43H         PUBLIC        ?C?ICALL
  C:2C47H         PUBLIC        ?C?ICALL2
  -------         ENDMOD        ?C?ICALL

  -------         MODULE        ?C?STRCMP
  C:2DC7H         PUBLIC        ?C?STRCMP
  -------         ENDMOD        ?C?STRCMP
BL51 BANKED LINKER/LOCATER V6.22                                                      03/10/2016  16:30:11  PAGE 169



  -------         MODULE        ?C?MEMSET
  C:2DE4H         PUBLIC        ?C?MEMSET
  -------         ENDMOD        ?C?MEMSET

  -------         MODULE        VSPRINTF
  X:06BEH         PUBLIC        ?_VSPRINTF?BYTE
  C:75BDH         PUBLIC        _VSPRINTF
  -------         ENDMOD        VSPRINTF

  -------         MODULE        ?C?LLDIDATA
  C:2E10H         PUBLIC        ?C?LLDIDATA
  -------         ENDMOD        ?C?LLDIDATA

  -------         MODULE        ?C?LLDXDATA
  C:2E1CH         PUBLIC        ?C?LLDXDATA
  -------         ENDMOD        ?C?LLDXDATA

  -------         MODULE        ?C?LLDPDATA
  C:2E28H         PUBLIC        ?C?LLDPDATA
  -------         ENDMOD        ?C?LLDPDATA

  -------         MODULE        ?C?LLDCODE
  C:2E34H         PUBLIC        ?C?LLDCODE
  -------         ENDMOD        ?C?LLDCODE

  -------         MODULE        ?C?LSTIDATA
  C:2E44H         PUBLIC        ?C?LSTIDATA
  -------         ENDMOD        ?C?LSTIDATA

  -------         MODULE        ?C?LSTPDATA
  C:2E50H         PUBLIC        ?C?LSTPDATA
  -------         ENDMOD        ?C?LSTPDATA

  -------         MODULE        PRINTF
  X:061FH         PUBLIC        ?_PRINTF517?BYTE
  X:061FH         PUBLIC        ?_PRINTF?BYTE
  X:061FH         PUBLIC        ?_SPRINTF517?BYTE
  X:061FH         PUBLIC        ?_SPRINTF?BYTE
  C:2EE7H         PUBLIC        _PRINTF
  C:2EE7H         PUBLIC        _PRINTF517
  C:2EE1H         PUBLIC        _SPRINTF
  C:2EE1H         PUBLIC        _SPRINTF517
  -------         ENDMOD        PRINTF

  -------         MODULE        ?C?PLDIXDATA
  C:2E5CH         PUBLIC        ?C?PLDIXDATA
  -------         ENDMOD        ?C?PLDIXDATA

  -------         MODULE        ?C?PSTXDATA
  C:2E73H         PUBLIC        ?C?PSTXDATA
  -------         ENDMOD        ?C?PSTXDATA

  -------         MODULE        PUTCHAR
  C:7E4FH         PUBLIC        _PUTCHAR
  -------         ENDMOD        PUTCHAR

BL51 BANKED LINKER/LOCATER V6.22                                                      03/10/2016  16:30:11  PAGE 170


*** WARNING L16: UNCALLED SEGMENT, IGNORED FOR OVERLAY PROCESS
    SEGMENT: ?PR?_USART2_SENDSTRING?USART

*** WARNING L16: UNCALLED SEGMENT, IGNORED FOR OVERLAY PROCESS
    SEGMENT: ?PR?_SENDSTRING?USART

*** WARNING L16: UNCALLED SEGMENT, IGNORED FOR OVERLAY PROCESS
    SEGMENT: ?PR?_UART_PRINTF?USART

*** WARNING L16: UNCALLED SEGMENT, IGNORED FOR OVERLAY PROCESS
    SEGMENT: ?PR?ENV_INIT?KEY

*** WARNING L16: UNCALLED SEGMENT, IGNORED FOR OVERLAY PROCESS
    SEGMENT: ?PR?_DELAYMS?AT24C256

*** WARNING L16: UNCALLED SEGMENT, IGNORED FOR OVERLAY PROCESS
    SEGMENT: ?PR?GD5800_PLAY_MUSIC?GD5800

*** WARNING L16: UNCALLED SEGMENT, IGNORED FOR OVERLAY PROCESS
    SEGMENT: ?PR?_MCU_TO_COMPUTER?COM

*** WARNING L16: UNCALLED SEGMENT, IGNORED FOR OVERLAY PROCESS
    SEGMENT: ?PR?_PRINTER58MM_SETMODE?PRINTER

Program Size: data=23.4 xdata=1745 code=34694
LINK/LOCATE RUN COMPLETE.  8 WARNING(S),  0 ERROR(S)
